ARM GAS  /tmp/ccG0FHgO.s 			page 1


   1              		.cpu cortex-m3
   2              		.arch armv7-m
   3              		.fpu softvfp
   4              		.eabi_attribute 20, 1
   5              		.eabi_attribute 21, 1
   6              		.eabi_attribute 23, 3
   7              		.eabi_attribute 24, 1
   8              		.eabi_attribute 25, 1
   9              		.eabi_attribute 26, 1
  10              		.eabi_attribute 30, 1
  11              		.eabi_attribute 34, 1
  12              		.eabi_attribute 18, 4
  13              		.file	"tcp_out.c"
  14              		.text
  15              	.Ltext0:
  16              		.cfi_sections	.debug_frame
  17              		.section	.rodata.tcp_write_checks.str1.4,"aMS",%progbits,1
  18              		.align	2
  19              	.LC0:
  20 0000 4D696464 		.ascii	"Middlewares/Third_Party/LwIP/src/core/tcp_out.c\000"
  20      6C657761 
  20      7265732F 
  20      54686972 
  20      645F5061 
  21              		.align	2
  22              	.LC1:
  23 0030 7463705F 		.ascii	"tcp_write: pbufs on queue => at least one queue non"
  23      77726974 
  23      653A2070 
  23      62756673 
  23      206F6E20 
  24 0063 2D656D70 		.ascii	"-empty\000"
  24      747900
  25 006a 0000     		.align	2
  26              	.LC2:
  27 006c 41737365 		.ascii	"Assertion \"%s\" failed at line %d in %s\012\000"
  27      7274696F 
  27      6E202225 
  27      73222066 
  27      61696C65 
  28              		.align	2
  29              	.LC3:
  30 0094 7463705F 		.ascii	"tcp_write: no pbufs on queue => both queues empty\000"
  30      77726974 
  30      653A206E 
  30      6F207062 
  30      75667320 
  31              		.section	.text.tcp_write_checks,"ax",%progbits
  32              		.align	1
  33              		.syntax unified
  34              		.thumb
  35              		.thumb_func
  37              	tcp_write_checks:
  38              	.LVL0:
  39              	.LFB101:
  40              		.file 1 "Middlewares/Third_Party/LwIP/src/core/tcp_out.c"
   1:Middlewares/Third_Party/LwIP/src/core/tcp_out.c **** /**
ARM GAS  /tmp/ccG0FHgO.s 			page 2


   2:Middlewares/Third_Party/LwIP/src/core/tcp_out.c ****  * @file
   3:Middlewares/Third_Party/LwIP/src/core/tcp_out.c ****  * Transmission Control Protocol, outgoing traffic
   4:Middlewares/Third_Party/LwIP/src/core/tcp_out.c ****  *
   5:Middlewares/Third_Party/LwIP/src/core/tcp_out.c ****  * The output functions of TCP.
   6:Middlewares/Third_Party/LwIP/src/core/tcp_out.c ****  *
   7:Middlewares/Third_Party/LwIP/src/core/tcp_out.c ****  */
   8:Middlewares/Third_Party/LwIP/src/core/tcp_out.c **** 
   9:Middlewares/Third_Party/LwIP/src/core/tcp_out.c **** /*
  10:Middlewares/Third_Party/LwIP/src/core/tcp_out.c ****  * Copyright (c) 2001-2004 Swedish Institute of Computer Science.
  11:Middlewares/Third_Party/LwIP/src/core/tcp_out.c ****  * All rights reserved.
  12:Middlewares/Third_Party/LwIP/src/core/tcp_out.c ****  *
  13:Middlewares/Third_Party/LwIP/src/core/tcp_out.c ****  * Redistribution and use in source and binary forms, with or without modification,
  14:Middlewares/Third_Party/LwIP/src/core/tcp_out.c ****  * are permitted provided that the following conditions are met:
  15:Middlewares/Third_Party/LwIP/src/core/tcp_out.c ****  *
  16:Middlewares/Third_Party/LwIP/src/core/tcp_out.c ****  * 1. Redistributions of source code must retain the above copyright notice,
  17:Middlewares/Third_Party/LwIP/src/core/tcp_out.c ****  *    this list of conditions and the following disclaimer.
  18:Middlewares/Third_Party/LwIP/src/core/tcp_out.c ****  * 2. Redistributions in binary form must reproduce the above copyright notice,
  19:Middlewares/Third_Party/LwIP/src/core/tcp_out.c ****  *    this list of conditions and the following disclaimer in the documentation
  20:Middlewares/Third_Party/LwIP/src/core/tcp_out.c ****  *    and/or other materials provided with the distribution.
  21:Middlewares/Third_Party/LwIP/src/core/tcp_out.c ****  * 3. The name of the author may not be used to endorse or promote products
  22:Middlewares/Third_Party/LwIP/src/core/tcp_out.c ****  *    derived from this software without specific prior written permission.
  23:Middlewares/Third_Party/LwIP/src/core/tcp_out.c ****  *
  24:Middlewares/Third_Party/LwIP/src/core/tcp_out.c ****  * THIS SOFTWARE IS PROVIDED BY THE AUTHOR ``AS IS'' AND ANY EXPRESS OR IMPLIED
  25:Middlewares/Third_Party/LwIP/src/core/tcp_out.c ****  * WARRANTIES, INCLUDING, BUT NOT LIMITED TO, THE IMPLIED WARRANTIES OF
  26:Middlewares/Third_Party/LwIP/src/core/tcp_out.c ****  * MERCHANTABILITY AND FITNESS FOR A PARTICULAR PURPOSE ARE DISCLAIMED. IN NO EVENT
  27:Middlewares/Third_Party/LwIP/src/core/tcp_out.c ****  * SHALL THE AUTHOR BE LIABLE FOR ANY DIRECT, INDIRECT, INCIDENTAL, SPECIAL,
  28:Middlewares/Third_Party/LwIP/src/core/tcp_out.c ****  * EXEMPLARY, OR CONSEQUENTIAL DAMAGES (INCLUDING, BUT NOT LIMITED TO, PROCUREMENT
  29:Middlewares/Third_Party/LwIP/src/core/tcp_out.c ****  * OF SUBSTITUTE GOODS OR SERVICES; LOSS OF USE, DATA, OR PROFITS; OR BUSINESS
  30:Middlewares/Third_Party/LwIP/src/core/tcp_out.c ****  * INTERRUPTION) HOWEVER CAUSED AND ON ANY THEORY OF LIABILITY, WHETHER IN
  31:Middlewares/Third_Party/LwIP/src/core/tcp_out.c ****  * CONTRACT, STRICT LIABILITY, OR TORT (INCLUDING NEGLIGENCE OR OTHERWISE) ARISING
  32:Middlewares/Third_Party/LwIP/src/core/tcp_out.c ****  * IN ANY WAY OUT OF THE USE OF THIS SOFTWARE, EVEN IF ADVISED OF THE POSSIBILITY
  33:Middlewares/Third_Party/LwIP/src/core/tcp_out.c ****  * OF SUCH DAMAGE.
  34:Middlewares/Third_Party/LwIP/src/core/tcp_out.c ****  *
  35:Middlewares/Third_Party/LwIP/src/core/tcp_out.c ****  * This file is part of the lwIP TCP/IP stack.
  36:Middlewares/Third_Party/LwIP/src/core/tcp_out.c ****  *
  37:Middlewares/Third_Party/LwIP/src/core/tcp_out.c ****  * Author: Adam Dunkels <adam@sics.se>
  38:Middlewares/Third_Party/LwIP/src/core/tcp_out.c ****  *
  39:Middlewares/Third_Party/LwIP/src/core/tcp_out.c ****  */
  40:Middlewares/Third_Party/LwIP/src/core/tcp_out.c **** 
  41:Middlewares/Third_Party/LwIP/src/core/tcp_out.c **** #include "lwip/opt.h"
  42:Middlewares/Third_Party/LwIP/src/core/tcp_out.c **** 
  43:Middlewares/Third_Party/LwIP/src/core/tcp_out.c **** #if LWIP_TCP /* don't build if not configured for use in lwipopts.h */
  44:Middlewares/Third_Party/LwIP/src/core/tcp_out.c **** 
  45:Middlewares/Third_Party/LwIP/src/core/tcp_out.c **** #include "lwip/priv/tcp_priv.h"
  46:Middlewares/Third_Party/LwIP/src/core/tcp_out.c **** #include "lwip/def.h"
  47:Middlewares/Third_Party/LwIP/src/core/tcp_out.c **** #include "lwip/mem.h"
  48:Middlewares/Third_Party/LwIP/src/core/tcp_out.c **** #include "lwip/memp.h"
  49:Middlewares/Third_Party/LwIP/src/core/tcp_out.c **** #include "lwip/ip_addr.h"
  50:Middlewares/Third_Party/LwIP/src/core/tcp_out.c **** #include "lwip/netif.h"
  51:Middlewares/Third_Party/LwIP/src/core/tcp_out.c **** #include "lwip/inet_chksum.h"
  52:Middlewares/Third_Party/LwIP/src/core/tcp_out.c **** #include "lwip/stats.h"
  53:Middlewares/Third_Party/LwIP/src/core/tcp_out.c **** #include "lwip/ip6.h"
  54:Middlewares/Third_Party/LwIP/src/core/tcp_out.c **** #include "lwip/ip6_addr.h"
  55:Middlewares/Third_Party/LwIP/src/core/tcp_out.c **** #if LWIP_TCP_TIMESTAMPS
  56:Middlewares/Third_Party/LwIP/src/core/tcp_out.c **** #include "lwip/sys.h"
  57:Middlewares/Third_Party/LwIP/src/core/tcp_out.c **** #endif
  58:Middlewares/Third_Party/LwIP/src/core/tcp_out.c **** 
ARM GAS  /tmp/ccG0FHgO.s 			page 3


  59:Middlewares/Third_Party/LwIP/src/core/tcp_out.c **** #include <string.h>
  60:Middlewares/Third_Party/LwIP/src/core/tcp_out.c **** 
  61:Middlewares/Third_Party/LwIP/src/core/tcp_out.c **** /* Define some copy-macros for checksum-on-copy so that the code looks
  62:Middlewares/Third_Party/LwIP/src/core/tcp_out.c ****    nicer by preventing too many ifdef's. */
  63:Middlewares/Third_Party/LwIP/src/core/tcp_out.c **** #if TCP_CHECKSUM_ON_COPY
  64:Middlewares/Third_Party/LwIP/src/core/tcp_out.c **** #define TCP_DATA_COPY(dst, src, len, seg) do { \
  65:Middlewares/Third_Party/LwIP/src/core/tcp_out.c ****   tcp_seg_add_chksum(LWIP_CHKSUM_COPY(dst, src, len), \
  66:Middlewares/Third_Party/LwIP/src/core/tcp_out.c ****                      len, &seg->chksum, &seg->chksum_swapped); \
  67:Middlewares/Third_Party/LwIP/src/core/tcp_out.c ****   seg->flags |= TF_SEG_DATA_CHECKSUMMED; } while(0)
  68:Middlewares/Third_Party/LwIP/src/core/tcp_out.c **** #define TCP_DATA_COPY2(dst, src, len, chksum, chksum_swapped)  \
  69:Middlewares/Third_Party/LwIP/src/core/tcp_out.c ****   tcp_seg_add_chksum(LWIP_CHKSUM_COPY(dst, src, len), len, chksum, chksum_swapped);
  70:Middlewares/Third_Party/LwIP/src/core/tcp_out.c **** #else /* TCP_CHECKSUM_ON_COPY*/
  71:Middlewares/Third_Party/LwIP/src/core/tcp_out.c **** #define TCP_DATA_COPY(dst, src, len, seg)                     MEMCPY(dst, src, len)
  72:Middlewares/Third_Party/LwIP/src/core/tcp_out.c **** #define TCP_DATA_COPY2(dst, src, len, chksum, chksum_swapped) MEMCPY(dst, src, len)
  73:Middlewares/Third_Party/LwIP/src/core/tcp_out.c **** #endif /* TCP_CHECKSUM_ON_COPY*/
  74:Middlewares/Third_Party/LwIP/src/core/tcp_out.c **** 
  75:Middlewares/Third_Party/LwIP/src/core/tcp_out.c **** /** Define this to 1 for an extra check that the output checksum is valid
  76:Middlewares/Third_Party/LwIP/src/core/tcp_out.c ****  * (usefule when the checksum is generated by the application, not the stack) */
  77:Middlewares/Third_Party/LwIP/src/core/tcp_out.c **** #ifndef TCP_CHECKSUM_ON_COPY_SANITY_CHECK
  78:Middlewares/Third_Party/LwIP/src/core/tcp_out.c **** #define TCP_CHECKSUM_ON_COPY_SANITY_CHECK   0
  79:Middlewares/Third_Party/LwIP/src/core/tcp_out.c **** #endif
  80:Middlewares/Third_Party/LwIP/src/core/tcp_out.c **** /* Allow to override the failure of sanity check from warning to e.g. hard failure */
  81:Middlewares/Third_Party/LwIP/src/core/tcp_out.c **** #if TCP_CHECKSUM_ON_COPY_SANITY_CHECK
  82:Middlewares/Third_Party/LwIP/src/core/tcp_out.c **** #ifndef TCP_CHECKSUM_ON_COPY_SANITY_CHECK_FAIL
  83:Middlewares/Third_Party/LwIP/src/core/tcp_out.c **** #define TCP_CHECKSUM_ON_COPY_SANITY_CHECK_FAIL(msg) LWIP_DEBUGF(TCP_DEBUG | LWIP_DBG_LEVEL_WARNING,
  84:Middlewares/Third_Party/LwIP/src/core/tcp_out.c **** #endif
  85:Middlewares/Third_Party/LwIP/src/core/tcp_out.c **** #endif
  86:Middlewares/Third_Party/LwIP/src/core/tcp_out.c **** 
  87:Middlewares/Third_Party/LwIP/src/core/tcp_out.c **** #if TCP_OVERSIZE
  88:Middlewares/Third_Party/LwIP/src/core/tcp_out.c **** /** The size of segment pbufs created when TCP_OVERSIZE is enabled */
  89:Middlewares/Third_Party/LwIP/src/core/tcp_out.c **** #ifndef TCP_OVERSIZE_CALC_LENGTH
  90:Middlewares/Third_Party/LwIP/src/core/tcp_out.c **** #define TCP_OVERSIZE_CALC_LENGTH(length) ((length) + TCP_OVERSIZE)
  91:Middlewares/Third_Party/LwIP/src/core/tcp_out.c **** #endif
  92:Middlewares/Third_Party/LwIP/src/core/tcp_out.c **** #endif
  93:Middlewares/Third_Party/LwIP/src/core/tcp_out.c **** 
  94:Middlewares/Third_Party/LwIP/src/core/tcp_out.c **** /* Forward declarations.*/
  95:Middlewares/Third_Party/LwIP/src/core/tcp_out.c **** static err_t tcp_output_segment(struct tcp_seg *seg, struct tcp_pcb *pcb, struct netif *netif);
  96:Middlewares/Third_Party/LwIP/src/core/tcp_out.c **** 
  97:Middlewares/Third_Party/LwIP/src/core/tcp_out.c **** /** Allocate a pbuf and create a tcphdr at p->payload, used for output
  98:Middlewares/Third_Party/LwIP/src/core/tcp_out.c ****  * functions other than the default tcp_output -> tcp_output_segment
  99:Middlewares/Third_Party/LwIP/src/core/tcp_out.c ****  * (e.g. tcp_send_empty_ack, etc.)
 100:Middlewares/Third_Party/LwIP/src/core/tcp_out.c ****  *
 101:Middlewares/Third_Party/LwIP/src/core/tcp_out.c ****  * @param pcb tcp pcb for which to send a packet (used to initialize tcp_hdr)
 102:Middlewares/Third_Party/LwIP/src/core/tcp_out.c ****  * @param optlen length of header-options
 103:Middlewares/Third_Party/LwIP/src/core/tcp_out.c ****  * @param datalen length of tcp data to reserve in pbuf
 104:Middlewares/Third_Party/LwIP/src/core/tcp_out.c ****  * @param seqno_be seqno in network byte order (big-endian)
 105:Middlewares/Third_Party/LwIP/src/core/tcp_out.c ****  * @return pbuf with p->payload being the tcp_hdr
 106:Middlewares/Third_Party/LwIP/src/core/tcp_out.c ****  */
 107:Middlewares/Third_Party/LwIP/src/core/tcp_out.c **** static struct pbuf *
 108:Middlewares/Third_Party/LwIP/src/core/tcp_out.c **** tcp_output_alloc_header(struct tcp_pcb *pcb, u16_t optlen, u16_t datalen,
 109:Middlewares/Third_Party/LwIP/src/core/tcp_out.c ****                       u32_t seqno_be /* already in network byte order */)
 110:Middlewares/Third_Party/LwIP/src/core/tcp_out.c **** {
 111:Middlewares/Third_Party/LwIP/src/core/tcp_out.c ****   struct tcp_hdr *tcphdr;
 112:Middlewares/Third_Party/LwIP/src/core/tcp_out.c ****   struct pbuf *p = pbuf_alloc(PBUF_IP, TCP_HLEN + optlen + datalen, PBUF_RAM);
 113:Middlewares/Third_Party/LwIP/src/core/tcp_out.c ****   if (p != NULL) {
 114:Middlewares/Third_Party/LwIP/src/core/tcp_out.c ****     LWIP_ASSERT("check that first pbuf can hold struct tcp_hdr",
 115:Middlewares/Third_Party/LwIP/src/core/tcp_out.c ****                  (p->len >= TCP_HLEN + optlen));
ARM GAS  /tmp/ccG0FHgO.s 			page 4


 116:Middlewares/Third_Party/LwIP/src/core/tcp_out.c ****     tcphdr = (struct tcp_hdr *)p->payload;
 117:Middlewares/Third_Party/LwIP/src/core/tcp_out.c ****     tcphdr->src = lwip_htons(pcb->local_port);
 118:Middlewares/Third_Party/LwIP/src/core/tcp_out.c ****     tcphdr->dest = lwip_htons(pcb->remote_port);
 119:Middlewares/Third_Party/LwIP/src/core/tcp_out.c ****     tcphdr->seqno = seqno_be;
 120:Middlewares/Third_Party/LwIP/src/core/tcp_out.c ****     tcphdr->ackno = lwip_htonl(pcb->rcv_nxt);
 121:Middlewares/Third_Party/LwIP/src/core/tcp_out.c ****     TCPH_HDRLEN_FLAGS_SET(tcphdr, (5 + optlen / 4), TCP_ACK);
 122:Middlewares/Third_Party/LwIP/src/core/tcp_out.c ****     tcphdr->wnd = lwip_htons(TCPWND_MIN16(RCV_WND_SCALE(pcb, pcb->rcv_ann_wnd)));
 123:Middlewares/Third_Party/LwIP/src/core/tcp_out.c ****     tcphdr->chksum = 0;
 124:Middlewares/Third_Party/LwIP/src/core/tcp_out.c ****     tcphdr->urgp = 0;
 125:Middlewares/Third_Party/LwIP/src/core/tcp_out.c **** 
 126:Middlewares/Third_Party/LwIP/src/core/tcp_out.c ****     /* If we're sending a packet, update the announced right window edge */
 127:Middlewares/Third_Party/LwIP/src/core/tcp_out.c ****     pcb->rcv_ann_right_edge = pcb->rcv_nxt + pcb->rcv_ann_wnd;
 128:Middlewares/Third_Party/LwIP/src/core/tcp_out.c ****   }
 129:Middlewares/Third_Party/LwIP/src/core/tcp_out.c ****   return p;
 130:Middlewares/Third_Party/LwIP/src/core/tcp_out.c **** }
 131:Middlewares/Third_Party/LwIP/src/core/tcp_out.c **** 
 132:Middlewares/Third_Party/LwIP/src/core/tcp_out.c **** /**
 133:Middlewares/Third_Party/LwIP/src/core/tcp_out.c ****  * Called by tcp_close() to send a segment including FIN flag but not data.
 134:Middlewares/Third_Party/LwIP/src/core/tcp_out.c ****  *
 135:Middlewares/Third_Party/LwIP/src/core/tcp_out.c ****  * @param pcb the tcp_pcb over which to send a segment
 136:Middlewares/Third_Party/LwIP/src/core/tcp_out.c ****  * @return ERR_OK if sent, another err_t otherwise
 137:Middlewares/Third_Party/LwIP/src/core/tcp_out.c ****  */
 138:Middlewares/Third_Party/LwIP/src/core/tcp_out.c **** err_t
 139:Middlewares/Third_Party/LwIP/src/core/tcp_out.c **** tcp_send_fin(struct tcp_pcb *pcb)
 140:Middlewares/Third_Party/LwIP/src/core/tcp_out.c **** {
 141:Middlewares/Third_Party/LwIP/src/core/tcp_out.c ****   /* first, try to add the fin to the last unsent segment */
 142:Middlewares/Third_Party/LwIP/src/core/tcp_out.c ****   if (pcb->unsent != NULL) {
 143:Middlewares/Third_Party/LwIP/src/core/tcp_out.c ****     struct tcp_seg *last_unsent;
 144:Middlewares/Third_Party/LwIP/src/core/tcp_out.c ****     for (last_unsent = pcb->unsent; last_unsent->next != NULL;
 145:Middlewares/Third_Party/LwIP/src/core/tcp_out.c ****          last_unsent = last_unsent->next);
 146:Middlewares/Third_Party/LwIP/src/core/tcp_out.c **** 
 147:Middlewares/Third_Party/LwIP/src/core/tcp_out.c ****     if ((TCPH_FLAGS(last_unsent->tcphdr) & (TCP_SYN | TCP_FIN | TCP_RST)) == 0) {
 148:Middlewares/Third_Party/LwIP/src/core/tcp_out.c ****       /* no SYN/FIN/RST flag in the header, we can add the FIN flag */
 149:Middlewares/Third_Party/LwIP/src/core/tcp_out.c ****       TCPH_SET_FLAG(last_unsent->tcphdr, TCP_FIN);
 150:Middlewares/Third_Party/LwIP/src/core/tcp_out.c ****       pcb->flags |= TF_FIN;
 151:Middlewares/Third_Party/LwIP/src/core/tcp_out.c ****       return ERR_OK;
 152:Middlewares/Third_Party/LwIP/src/core/tcp_out.c ****     }
 153:Middlewares/Third_Party/LwIP/src/core/tcp_out.c ****   }
 154:Middlewares/Third_Party/LwIP/src/core/tcp_out.c ****   /* no data, no length, flags, copy=1, no optdata */
 155:Middlewares/Third_Party/LwIP/src/core/tcp_out.c ****   return tcp_enqueue_flags(pcb, TCP_FIN);
 156:Middlewares/Third_Party/LwIP/src/core/tcp_out.c **** }
 157:Middlewares/Third_Party/LwIP/src/core/tcp_out.c **** 
 158:Middlewares/Third_Party/LwIP/src/core/tcp_out.c **** /**
 159:Middlewares/Third_Party/LwIP/src/core/tcp_out.c ****  * Create a TCP segment with prefilled header.
 160:Middlewares/Third_Party/LwIP/src/core/tcp_out.c ****  *
 161:Middlewares/Third_Party/LwIP/src/core/tcp_out.c ****  * Called by tcp_write and tcp_enqueue_flags.
 162:Middlewares/Third_Party/LwIP/src/core/tcp_out.c ****  *
 163:Middlewares/Third_Party/LwIP/src/core/tcp_out.c ****  * @param pcb Protocol control block for the TCP connection.
 164:Middlewares/Third_Party/LwIP/src/core/tcp_out.c ****  * @param p pbuf that is used to hold the TCP header.
 165:Middlewares/Third_Party/LwIP/src/core/tcp_out.c ****  * @param flags TCP flags for header.
 166:Middlewares/Third_Party/LwIP/src/core/tcp_out.c ****  * @param seqno TCP sequence number of this packet
 167:Middlewares/Third_Party/LwIP/src/core/tcp_out.c ****  * @param optflags options to include in TCP header
 168:Middlewares/Third_Party/LwIP/src/core/tcp_out.c ****  * @return a new tcp_seg pointing to p, or NULL.
 169:Middlewares/Third_Party/LwIP/src/core/tcp_out.c ****  * The TCP header is filled in except ackno and wnd.
 170:Middlewares/Third_Party/LwIP/src/core/tcp_out.c ****  * p is freed on failure.
 171:Middlewares/Third_Party/LwIP/src/core/tcp_out.c ****  */
 172:Middlewares/Third_Party/LwIP/src/core/tcp_out.c **** static struct tcp_seg *
ARM GAS  /tmp/ccG0FHgO.s 			page 5


 173:Middlewares/Third_Party/LwIP/src/core/tcp_out.c **** tcp_create_segment(struct tcp_pcb *pcb, struct pbuf *p, u8_t flags, u32_t seqno, u8_t optflags)
 174:Middlewares/Third_Party/LwIP/src/core/tcp_out.c **** {
 175:Middlewares/Third_Party/LwIP/src/core/tcp_out.c ****   struct tcp_seg *seg;
 176:Middlewares/Third_Party/LwIP/src/core/tcp_out.c ****   u8_t optlen = LWIP_TCP_OPT_LENGTH(optflags);
 177:Middlewares/Third_Party/LwIP/src/core/tcp_out.c **** 
 178:Middlewares/Third_Party/LwIP/src/core/tcp_out.c ****   if ((seg = (struct tcp_seg *)memp_malloc(MEMP_TCP_SEG)) == NULL) {
 179:Middlewares/Third_Party/LwIP/src/core/tcp_out.c ****     LWIP_DEBUGF(TCP_OUTPUT_DEBUG | LWIP_DBG_LEVEL_SERIOUS, ("tcp_create_segment: no memory.\n"));
 180:Middlewares/Third_Party/LwIP/src/core/tcp_out.c ****     pbuf_free(p);
 181:Middlewares/Third_Party/LwIP/src/core/tcp_out.c ****     return NULL;
 182:Middlewares/Third_Party/LwIP/src/core/tcp_out.c ****   }
 183:Middlewares/Third_Party/LwIP/src/core/tcp_out.c ****   seg->flags = optflags;
 184:Middlewares/Third_Party/LwIP/src/core/tcp_out.c ****   seg->next = NULL;
 185:Middlewares/Third_Party/LwIP/src/core/tcp_out.c ****   seg->p = p;
 186:Middlewares/Third_Party/LwIP/src/core/tcp_out.c ****   LWIP_ASSERT("p->tot_len >= optlen", p->tot_len >= optlen);
 187:Middlewares/Third_Party/LwIP/src/core/tcp_out.c ****   seg->len = p->tot_len - optlen;
 188:Middlewares/Third_Party/LwIP/src/core/tcp_out.c **** #if TCP_OVERSIZE_DBGCHECK
 189:Middlewares/Third_Party/LwIP/src/core/tcp_out.c ****   seg->oversize_left = 0;
 190:Middlewares/Third_Party/LwIP/src/core/tcp_out.c **** #endif /* TCP_OVERSIZE_DBGCHECK */
 191:Middlewares/Third_Party/LwIP/src/core/tcp_out.c **** #if TCP_CHECKSUM_ON_COPY
 192:Middlewares/Third_Party/LwIP/src/core/tcp_out.c ****   seg->chksum = 0;
 193:Middlewares/Third_Party/LwIP/src/core/tcp_out.c ****   seg->chksum_swapped = 0;
 194:Middlewares/Third_Party/LwIP/src/core/tcp_out.c ****   /* check optflags */
 195:Middlewares/Third_Party/LwIP/src/core/tcp_out.c ****   LWIP_ASSERT("invalid optflags passed: TF_SEG_DATA_CHECKSUMMED",
 196:Middlewares/Third_Party/LwIP/src/core/tcp_out.c ****               (optflags & TF_SEG_DATA_CHECKSUMMED) == 0);
 197:Middlewares/Third_Party/LwIP/src/core/tcp_out.c **** #endif /* TCP_CHECKSUM_ON_COPY */
 198:Middlewares/Third_Party/LwIP/src/core/tcp_out.c **** 
 199:Middlewares/Third_Party/LwIP/src/core/tcp_out.c ****   /* build TCP header */
 200:Middlewares/Third_Party/LwIP/src/core/tcp_out.c ****   if (pbuf_header(p, TCP_HLEN)) {
 201:Middlewares/Third_Party/LwIP/src/core/tcp_out.c ****     LWIP_DEBUGF(TCP_OUTPUT_DEBUG | LWIP_DBG_LEVEL_SERIOUS, ("tcp_create_segment: no room for TCP he
 202:Middlewares/Third_Party/LwIP/src/core/tcp_out.c ****     TCP_STATS_INC(tcp.err);
 203:Middlewares/Third_Party/LwIP/src/core/tcp_out.c ****     tcp_seg_free(seg);
 204:Middlewares/Third_Party/LwIP/src/core/tcp_out.c ****     return NULL;
 205:Middlewares/Third_Party/LwIP/src/core/tcp_out.c ****   }
 206:Middlewares/Third_Party/LwIP/src/core/tcp_out.c ****   seg->tcphdr = (struct tcp_hdr *)seg->p->payload;
 207:Middlewares/Third_Party/LwIP/src/core/tcp_out.c ****   seg->tcphdr->src = lwip_htons(pcb->local_port);
 208:Middlewares/Third_Party/LwIP/src/core/tcp_out.c ****   seg->tcphdr->dest = lwip_htons(pcb->remote_port);
 209:Middlewares/Third_Party/LwIP/src/core/tcp_out.c ****   seg->tcphdr->seqno = lwip_htonl(seqno);
 210:Middlewares/Third_Party/LwIP/src/core/tcp_out.c ****   /* ackno is set in tcp_output */
 211:Middlewares/Third_Party/LwIP/src/core/tcp_out.c ****   TCPH_HDRLEN_FLAGS_SET(seg->tcphdr, (5 + optlen / 4), flags);
 212:Middlewares/Third_Party/LwIP/src/core/tcp_out.c ****   /* wnd and chksum are set in tcp_output */
 213:Middlewares/Third_Party/LwIP/src/core/tcp_out.c ****   seg->tcphdr->urgp = 0;
 214:Middlewares/Third_Party/LwIP/src/core/tcp_out.c ****   return seg;
 215:Middlewares/Third_Party/LwIP/src/core/tcp_out.c **** }
 216:Middlewares/Third_Party/LwIP/src/core/tcp_out.c **** 
 217:Middlewares/Third_Party/LwIP/src/core/tcp_out.c **** /**
 218:Middlewares/Third_Party/LwIP/src/core/tcp_out.c ****  * Allocate a PBUF_RAM pbuf, perhaps with extra space at the end.
 219:Middlewares/Third_Party/LwIP/src/core/tcp_out.c ****  *
 220:Middlewares/Third_Party/LwIP/src/core/tcp_out.c ****  * This function is like pbuf_alloc(layer, length, PBUF_RAM) except
 221:Middlewares/Third_Party/LwIP/src/core/tcp_out.c ****  * there may be extra bytes available at the end.
 222:Middlewares/Third_Party/LwIP/src/core/tcp_out.c ****  *
 223:Middlewares/Third_Party/LwIP/src/core/tcp_out.c ****  * @param layer flag to define header size.
 224:Middlewares/Third_Party/LwIP/src/core/tcp_out.c ****  * @param length size of the pbuf's payload.
 225:Middlewares/Third_Party/LwIP/src/core/tcp_out.c ****  * @param max_length maximum usable size of payload+oversize.
 226:Middlewares/Third_Party/LwIP/src/core/tcp_out.c ****  * @param oversize pointer to a u16_t that will receive the number of usable tail bytes.
 227:Middlewares/Third_Party/LwIP/src/core/tcp_out.c ****  * @param pcb The TCP connection that will enqueue the pbuf.
 228:Middlewares/Third_Party/LwIP/src/core/tcp_out.c ****  * @param apiflags API flags given to tcp_write.
 229:Middlewares/Third_Party/LwIP/src/core/tcp_out.c ****  * @param first_seg true when this pbuf will be used in the first enqueued segment.
ARM GAS  /tmp/ccG0FHgO.s 			page 6


 230:Middlewares/Third_Party/LwIP/src/core/tcp_out.c ****  */
 231:Middlewares/Third_Party/LwIP/src/core/tcp_out.c **** #if TCP_OVERSIZE
 232:Middlewares/Third_Party/LwIP/src/core/tcp_out.c **** static struct pbuf *
 233:Middlewares/Third_Party/LwIP/src/core/tcp_out.c **** tcp_pbuf_prealloc(pbuf_layer layer, u16_t length, u16_t max_length,
 234:Middlewares/Third_Party/LwIP/src/core/tcp_out.c ****                   u16_t *oversize, struct tcp_pcb *pcb, u8_t apiflags,
 235:Middlewares/Third_Party/LwIP/src/core/tcp_out.c ****                   u8_t first_seg)
 236:Middlewares/Third_Party/LwIP/src/core/tcp_out.c **** {
 237:Middlewares/Third_Party/LwIP/src/core/tcp_out.c ****   struct pbuf *p;
 238:Middlewares/Third_Party/LwIP/src/core/tcp_out.c ****   u16_t alloc = length;
 239:Middlewares/Third_Party/LwIP/src/core/tcp_out.c **** 
 240:Middlewares/Third_Party/LwIP/src/core/tcp_out.c **** #if LWIP_NETIF_TX_SINGLE_PBUF
 241:Middlewares/Third_Party/LwIP/src/core/tcp_out.c ****   LWIP_UNUSED_ARG(max_length);
 242:Middlewares/Third_Party/LwIP/src/core/tcp_out.c ****   LWIP_UNUSED_ARG(pcb);
 243:Middlewares/Third_Party/LwIP/src/core/tcp_out.c ****   LWIP_UNUSED_ARG(apiflags);
 244:Middlewares/Third_Party/LwIP/src/core/tcp_out.c ****   LWIP_UNUSED_ARG(first_seg);
 245:Middlewares/Third_Party/LwIP/src/core/tcp_out.c ****   alloc = max_length;
 246:Middlewares/Third_Party/LwIP/src/core/tcp_out.c **** #else /* LWIP_NETIF_TX_SINGLE_PBUF */
 247:Middlewares/Third_Party/LwIP/src/core/tcp_out.c ****   if (length < max_length) {
 248:Middlewares/Third_Party/LwIP/src/core/tcp_out.c ****     /* Should we allocate an oversized pbuf, or just the minimum
 249:Middlewares/Third_Party/LwIP/src/core/tcp_out.c ****      * length required? If tcp_write is going to be called again
 250:Middlewares/Third_Party/LwIP/src/core/tcp_out.c ****      * before this segment is transmitted, we want the oversized
 251:Middlewares/Third_Party/LwIP/src/core/tcp_out.c ****      * buffer. If the segment will be transmitted immediately, we can
 252:Middlewares/Third_Party/LwIP/src/core/tcp_out.c ****      * save memory by allocating only length. We use a simple
 253:Middlewares/Third_Party/LwIP/src/core/tcp_out.c ****      * heuristic based on the following information:
 254:Middlewares/Third_Party/LwIP/src/core/tcp_out.c ****      *
 255:Middlewares/Third_Party/LwIP/src/core/tcp_out.c ****      * Did the user set TCP_WRITE_FLAG_MORE?
 256:Middlewares/Third_Party/LwIP/src/core/tcp_out.c ****      *
 257:Middlewares/Third_Party/LwIP/src/core/tcp_out.c ****      * Will the Nagle algorithm defer transmission of this segment?
 258:Middlewares/Third_Party/LwIP/src/core/tcp_out.c ****      */
 259:Middlewares/Third_Party/LwIP/src/core/tcp_out.c ****     if ((apiflags & TCP_WRITE_FLAG_MORE) ||
 260:Middlewares/Third_Party/LwIP/src/core/tcp_out.c ****         (!(pcb->flags & TF_NODELAY) &&
 261:Middlewares/Third_Party/LwIP/src/core/tcp_out.c ****          (!first_seg ||
 262:Middlewares/Third_Party/LwIP/src/core/tcp_out.c ****           pcb->unsent != NULL ||
 263:Middlewares/Third_Party/LwIP/src/core/tcp_out.c ****           pcb->unacked != NULL))) {
 264:Middlewares/Third_Party/LwIP/src/core/tcp_out.c ****       alloc = LWIP_MIN(max_length, LWIP_MEM_ALIGN_SIZE(TCP_OVERSIZE_CALC_LENGTH(length)));
 265:Middlewares/Third_Party/LwIP/src/core/tcp_out.c ****     }
 266:Middlewares/Third_Party/LwIP/src/core/tcp_out.c ****   }
 267:Middlewares/Third_Party/LwIP/src/core/tcp_out.c **** #endif /* LWIP_NETIF_TX_SINGLE_PBUF */
 268:Middlewares/Third_Party/LwIP/src/core/tcp_out.c ****   p = pbuf_alloc(layer, alloc, PBUF_RAM);
 269:Middlewares/Third_Party/LwIP/src/core/tcp_out.c ****   if (p == NULL) {
 270:Middlewares/Third_Party/LwIP/src/core/tcp_out.c ****     return NULL;
 271:Middlewares/Third_Party/LwIP/src/core/tcp_out.c ****   }
 272:Middlewares/Third_Party/LwIP/src/core/tcp_out.c ****   LWIP_ASSERT("need unchained pbuf", p->next == NULL);
 273:Middlewares/Third_Party/LwIP/src/core/tcp_out.c ****   *oversize = p->len - length;
 274:Middlewares/Third_Party/LwIP/src/core/tcp_out.c ****   /* trim p->len to the currently used size */
 275:Middlewares/Third_Party/LwIP/src/core/tcp_out.c ****   p->len = p->tot_len = length;
 276:Middlewares/Third_Party/LwIP/src/core/tcp_out.c ****   return p;
 277:Middlewares/Third_Party/LwIP/src/core/tcp_out.c **** }
 278:Middlewares/Third_Party/LwIP/src/core/tcp_out.c **** #else /* TCP_OVERSIZE */
 279:Middlewares/Third_Party/LwIP/src/core/tcp_out.c **** #define tcp_pbuf_prealloc(layer, length, mx, os, pcb, api, fst) pbuf_alloc((layer), (length), PBUF_
 280:Middlewares/Third_Party/LwIP/src/core/tcp_out.c **** #endif /* TCP_OVERSIZE */
 281:Middlewares/Third_Party/LwIP/src/core/tcp_out.c **** 
 282:Middlewares/Third_Party/LwIP/src/core/tcp_out.c **** #if TCP_CHECKSUM_ON_COPY
 283:Middlewares/Third_Party/LwIP/src/core/tcp_out.c **** /** Add a checksum of newly added data to the segment */
 284:Middlewares/Third_Party/LwIP/src/core/tcp_out.c **** static void
 285:Middlewares/Third_Party/LwIP/src/core/tcp_out.c **** tcp_seg_add_chksum(u16_t chksum, u16_t len, u16_t *seg_chksum,
 286:Middlewares/Third_Party/LwIP/src/core/tcp_out.c ****                    u8_t *seg_chksum_swapped)
ARM GAS  /tmp/ccG0FHgO.s 			page 7


 287:Middlewares/Third_Party/LwIP/src/core/tcp_out.c **** {
 288:Middlewares/Third_Party/LwIP/src/core/tcp_out.c ****   u32_t helper;
 289:Middlewares/Third_Party/LwIP/src/core/tcp_out.c ****   /* add chksum to old chksum and fold to u16_t */
 290:Middlewares/Third_Party/LwIP/src/core/tcp_out.c ****   helper = chksum + *seg_chksum;
 291:Middlewares/Third_Party/LwIP/src/core/tcp_out.c ****   chksum = FOLD_U32T(helper);
 292:Middlewares/Third_Party/LwIP/src/core/tcp_out.c ****   if ((len & 1) != 0) {
 293:Middlewares/Third_Party/LwIP/src/core/tcp_out.c ****     *seg_chksum_swapped = 1 - *seg_chksum_swapped;
 294:Middlewares/Third_Party/LwIP/src/core/tcp_out.c ****     chksum = SWAP_BYTES_IN_WORD(chksum);
 295:Middlewares/Third_Party/LwIP/src/core/tcp_out.c ****   }
 296:Middlewares/Third_Party/LwIP/src/core/tcp_out.c ****   *seg_chksum = chksum;
 297:Middlewares/Third_Party/LwIP/src/core/tcp_out.c **** }
 298:Middlewares/Third_Party/LwIP/src/core/tcp_out.c **** #endif /* TCP_CHECKSUM_ON_COPY */
 299:Middlewares/Third_Party/LwIP/src/core/tcp_out.c **** 
 300:Middlewares/Third_Party/LwIP/src/core/tcp_out.c **** /** Checks if tcp_write is allowed or not (checks state, snd_buf and snd_queuelen).
 301:Middlewares/Third_Party/LwIP/src/core/tcp_out.c ****  *
 302:Middlewares/Third_Party/LwIP/src/core/tcp_out.c ****  * @param pcb the tcp pcb to check for
 303:Middlewares/Third_Party/LwIP/src/core/tcp_out.c ****  * @param len length of data to send (checked agains snd_buf)
 304:Middlewares/Third_Party/LwIP/src/core/tcp_out.c ****  * @return ERR_OK if tcp_write is allowed to proceed, another err_t otherwise
 305:Middlewares/Third_Party/LwIP/src/core/tcp_out.c ****  */
 306:Middlewares/Third_Party/LwIP/src/core/tcp_out.c **** static err_t
 307:Middlewares/Third_Party/LwIP/src/core/tcp_out.c **** tcp_write_checks(struct tcp_pcb *pcb, u16_t len)
 308:Middlewares/Third_Party/LwIP/src/core/tcp_out.c **** {
  41              		.loc 1 308 1 view -0
  42              		.cfi_startproc
  43              		@ args = 0, pretend = 0, frame = 0
  44              		@ frame_needed = 0, uses_anonymous_args = 0
  45              		.loc 1 308 1 is_stmt 0 view .LVU1
  46 0000 08B5     		push	{r3, lr}
  47              	.LCFI0:
  48              		.cfi_def_cfa_offset 8
  49              		.cfi_offset 3, -8
  50              		.cfi_offset 14, -4
 309:Middlewares/Third_Party/LwIP/src/core/tcp_out.c ****   /* connection is in invalid state for data transmission? */
 310:Middlewares/Third_Party/LwIP/src/core/tcp_out.c ****   if ((pcb->state != ESTABLISHED) &&
  51              		.loc 1 310 3 is_stmt 1 view .LVU2
  52              		.loc 1 310 11 is_stmt 0 view .LVU3
  53 0002 037D     		ldrb	r3, [r0, #20]	@ zero_extendqisi2
  54              		.loc 1 310 6 view .LVU4
  55 0004 042B     		cmp	r3, #4
  56 0006 05D0     		beq	.L2
  57              		.loc 1 310 35 discriminator 1 view .LVU5
  58 0008 072B     		cmp	r3, #7
  59 000a 03D0     		beq	.L2
 311:Middlewares/Third_Party/LwIP/src/core/tcp_out.c ****       (pcb->state != CLOSE_WAIT) &&
  60              		.loc 1 311 34 view .LVU6
  61 000c 022B     		cmp	r3, #2
  62 000e 01D0     		beq	.L2
 312:Middlewares/Third_Party/LwIP/src/core/tcp_out.c ****       (pcb->state != SYN_SENT) &&
  63              		.loc 1 312 32 view .LVU7
  64 0010 032B     		cmp	r3, #3
  65 0012 39D1     		bne	.L8
  66              	.L2:
 313:Middlewares/Third_Party/LwIP/src/core/tcp_out.c ****       (pcb->state != SYN_RCVD)) {
 314:Middlewares/Third_Party/LwIP/src/core/tcp_out.c ****     LWIP_DEBUGF(TCP_OUTPUT_DEBUG | LWIP_DBG_STATE | LWIP_DBG_LEVEL_SEVERE, ("tcp_write() called in 
 315:Middlewares/Third_Party/LwIP/src/core/tcp_out.c ****     return ERR_CONN;
 316:Middlewares/Third_Party/LwIP/src/core/tcp_out.c ****   } else if (len == 0) {
  67              		.loc 1 316 10 is_stmt 1 view .LVU8
ARM GAS  /tmp/ccG0FHgO.s 			page 8


  68              		.loc 1 316 13 is_stmt 0 view .LVU9
  69 0014 0029     		cmp	r1, #0
  70 0016 3AD0     		beq	.L9
 317:Middlewares/Third_Party/LwIP/src/core/tcp_out.c ****     return ERR_OK;
 318:Middlewares/Third_Party/LwIP/src/core/tcp_out.c ****   }
 319:Middlewares/Third_Party/LwIP/src/core/tcp_out.c **** 
 320:Middlewares/Third_Party/LwIP/src/core/tcp_out.c ****   /* fail on too much data */
 321:Middlewares/Third_Party/LwIP/src/core/tcp_out.c ****   if (len > pcb->snd_buf) {
  71              		.loc 1 321 3 is_stmt 1 view .LVU10
  72              		.loc 1 321 16 is_stmt 0 view .LVU11
  73 0018 B0F86030 		ldrh	r3, [r0, #96]
  74              		.loc 1 321 6 view .LVU12
  75 001c 8B42     		cmp	r3, r1
  76 001e 08D3     		bcc	.L14
 322:Middlewares/Third_Party/LwIP/src/core/tcp_out.c ****     LWIP_DEBUGF(TCP_OUTPUT_DEBUG | LWIP_DBG_LEVEL_SEVERE, ("tcp_write: too much data (len=%"U16_F" 
 323:Middlewares/Third_Party/LwIP/src/core/tcp_out.c ****       len, pcb->snd_buf));
 324:Middlewares/Third_Party/LwIP/src/core/tcp_out.c ****     pcb->flags |= TF_NAGLEMEMERR;
 325:Middlewares/Third_Party/LwIP/src/core/tcp_out.c ****     return ERR_MEM;
 326:Middlewares/Third_Party/LwIP/src/core/tcp_out.c ****   }
 327:Middlewares/Third_Party/LwIP/src/core/tcp_out.c **** 
 328:Middlewares/Third_Party/LwIP/src/core/tcp_out.c ****   LWIP_DEBUGF(TCP_QLEN_DEBUG, ("tcp_write: queuelen: %"TCPWNDSIZE_F"\n", (tcpwnd_size_t)pcb->snd_qu
  77              		.loc 1 328 108 is_stmt 1 view .LVU13
 329:Middlewares/Third_Party/LwIP/src/core/tcp_out.c **** 
 330:Middlewares/Third_Party/LwIP/src/core/tcp_out.c ****   /* If total number of pbufs on the unsent/unacked queues exceeds the
 331:Middlewares/Third_Party/LwIP/src/core/tcp_out.c ****    * configured maximum, return an error */
 332:Middlewares/Third_Party/LwIP/src/core/tcp_out.c ****   /* check for configured max queuelen and possible overflow */
 333:Middlewares/Third_Party/LwIP/src/core/tcp_out.c ****   if ((pcb->snd_queuelen >= TCP_SND_QUEUELEN) || (pcb->snd_queuelen > TCP_SNDQUEUELEN_OVERFLOW)) {
  78              		.loc 1 333 3 view .LVU14
  79              		.loc 1 333 11 is_stmt 0 view .LVU15
  80 0020 B0F86230 		ldrh	r3, [r0, #98]
  81              		.loc 1 333 6 view .LVU16
  82 0024 082B     		cmp	r3, #8
  83 0026 0BD8     		bhi	.L15
 334:Middlewares/Third_Party/LwIP/src/core/tcp_out.c ****     LWIP_DEBUGF(TCP_OUTPUT_DEBUG | LWIP_DBG_LEVEL_SEVERE, ("tcp_write: too long queue %"U16_F" (max
 335:Middlewares/Third_Party/LwIP/src/core/tcp_out.c ****       pcb->snd_queuelen, (u16_t)TCP_SND_QUEUELEN));
 336:Middlewares/Third_Party/LwIP/src/core/tcp_out.c ****     TCP_STATS_INC(tcp.memerr);
 337:Middlewares/Third_Party/LwIP/src/core/tcp_out.c ****     pcb->flags |= TF_NAGLEMEMERR;
 338:Middlewares/Third_Party/LwIP/src/core/tcp_out.c ****     return ERR_MEM;
 339:Middlewares/Third_Party/LwIP/src/core/tcp_out.c ****   }
 340:Middlewares/Third_Party/LwIP/src/core/tcp_out.c ****   if (pcb->snd_queuelen != 0) {
  84              		.loc 1 340 3 is_stmt 1 view .LVU17
  85              		.loc 1 340 6 is_stmt 0 view .LVU18
  86 0028 F3B1     		cbz	r3, .L6
 341:Middlewares/Third_Party/LwIP/src/core/tcp_out.c ****     LWIP_ASSERT("tcp_write: pbufs on queue => at least one queue non-empty",
  87              		.loc 1 341 5 is_stmt 1 view .LVU19
  88              		.loc 1 341 5 view .LVU20
  89 002a C36E     		ldr	r3, [r0, #108]
  90 002c 7BB1     		cbz	r3, .L16
 342:Middlewares/Third_Party/LwIP/src/core/tcp_out.c ****       pcb->unacked != NULL || pcb->unsent != NULL);
 343:Middlewares/Third_Party/LwIP/src/core/tcp_out.c ****   } else {
 344:Middlewares/Third_Party/LwIP/src/core/tcp_out.c ****     LWIP_ASSERT("tcp_write: no pbufs on queue => both queues empty",
 345:Middlewares/Third_Party/LwIP/src/core/tcp_out.c ****       pcb->unacked == NULL && pcb->unsent == NULL);
 346:Middlewares/Third_Party/LwIP/src/core/tcp_out.c ****   }
 347:Middlewares/Third_Party/LwIP/src/core/tcp_out.c ****   return ERR_OK;
  91              		.loc 1 347 10 is_stmt 0 view .LVU21
  92 002e 0020     		movs	r0, #0
  93              	.LVL1:
ARM GAS  /tmp/ccG0FHgO.s 			page 9


  94              		.loc 1 347 10 view .LVU22
  95 0030 2EE0     		b	.L3
  96              	.LVL2:
  97              	.L14:
 323:Middlewares/Third_Party/LwIP/src/core/tcp_out.c ****     pcb->flags |= TF_NAGLEMEMERR;
  98              		.loc 1 323 26 is_stmt 1 view .LVU23
 324:Middlewares/Third_Party/LwIP/src/core/tcp_out.c ****     return ERR_MEM;
  99              		.loc 1 324 5 view .LVU24
 324:Middlewares/Third_Party/LwIP/src/core/tcp_out.c ****     return ERR_MEM;
 100              		.loc 1 324 16 is_stmt 0 view .LVU25
 101 0032 837E     		ldrb	r3, [r0, #26]	@ zero_extendqisi2
 102 0034 63F07F03 		orn	r3, r3, #127
 103 0038 8376     		strb	r3, [r0, #26]
 325:Middlewares/Third_Party/LwIP/src/core/tcp_out.c ****   }
 104              		.loc 1 325 5 is_stmt 1 view .LVU26
 325:Middlewares/Third_Party/LwIP/src/core/tcp_out.c ****   }
 105              		.loc 1 325 12 is_stmt 0 view .LVU27
 106 003a 4FF0FF30 		mov	r0, #-1
 107              	.LVL3:
 325:Middlewares/Third_Party/LwIP/src/core/tcp_out.c ****   }
 108              		.loc 1 325 12 view .LVU28
 109 003e 27E0     		b	.L3
 110              	.LVL4:
 111              	.L15:
 335:Middlewares/Third_Party/LwIP/src/core/tcp_out.c ****     TCP_STATS_INC(tcp.memerr);
 112              		.loc 1 335 51 is_stmt 1 view .LVU29
 336:Middlewares/Third_Party/LwIP/src/core/tcp_out.c ****     pcb->flags |= TF_NAGLEMEMERR;
 113              		.loc 1 336 30 view .LVU30
 337:Middlewares/Third_Party/LwIP/src/core/tcp_out.c ****     return ERR_MEM;
 114              		.loc 1 337 5 view .LVU31
 337:Middlewares/Third_Party/LwIP/src/core/tcp_out.c ****     return ERR_MEM;
 115              		.loc 1 337 16 is_stmt 0 view .LVU32
 116 0040 837E     		ldrb	r3, [r0, #26]	@ zero_extendqisi2
 117 0042 63F07F03 		orn	r3, r3, #127
 118 0046 8376     		strb	r3, [r0, #26]
 338:Middlewares/Third_Party/LwIP/src/core/tcp_out.c ****   }
 119              		.loc 1 338 5 is_stmt 1 view .LVU33
 338:Middlewares/Third_Party/LwIP/src/core/tcp_out.c ****   }
 120              		.loc 1 338 12 is_stmt 0 view .LVU34
 121 0048 4FF0FF30 		mov	r0, #-1
 122              	.LVL5:
 338:Middlewares/Third_Party/LwIP/src/core/tcp_out.c ****   }
 123              		.loc 1 338 12 view .LVU35
 124 004c 20E0     		b	.L3
 125              	.LVL6:
 126              	.L16:
 341:Middlewares/Third_Party/LwIP/src/core/tcp_out.c ****       pcb->unacked != NULL || pcb->unsent != NULL);
 127              		.loc 1 341 5 discriminator 1 view .LVU36
 128 004e 836E     		ldr	r3, [r0, #104]
 129 0050 0BB1     		cbz	r3, .L17
 130              		.loc 1 347 10 view .LVU37
 131 0052 0020     		movs	r0, #0
 132              	.LVL7:
 133              		.loc 1 347 10 view .LVU38
 134 0054 1CE0     		b	.L3
 135              	.LVL8:
 136              	.L17:
ARM GAS  /tmp/ccG0FHgO.s 			page 10


 341:Middlewares/Third_Party/LwIP/src/core/tcp_out.c ****       pcb->unacked != NULL || pcb->unsent != NULL);
 137              		.loc 1 341 5 is_stmt 1 discriminator 3 view .LVU39
 341:Middlewares/Third_Party/LwIP/src/core/tcp_out.c ****       pcb->unacked != NULL || pcb->unsent != NULL);
 138              		.loc 1 341 5 discriminator 3 view .LVU40
 139 0056 0F4B     		ldr	r3, .L19
 140 0058 40F25512 		movw	r2, #341
 141 005c 0E49     		ldr	r1, .L19+4
 142              	.LVL9:
 341:Middlewares/Third_Party/LwIP/src/core/tcp_out.c ****       pcb->unacked != NULL || pcb->unsent != NULL);
 143              		.loc 1 341 5 is_stmt 0 discriminator 3 view .LVU41
 144 005e 0F48     		ldr	r0, .L19+8
 145              	.LVL10:
 341:Middlewares/Third_Party/LwIP/src/core/tcp_out.c ****       pcb->unacked != NULL || pcb->unsent != NULL);
 146              		.loc 1 341 5 discriminator 3 view .LVU42
 147 0060 FFF7FEFF 		bl	printf
 148              	.LVL11:
 149              		.loc 1 347 10 discriminator 3 view .LVU43
 150 0064 0020     		movs	r0, #0
 151 0066 13E0     		b	.L3
 152              	.LVL12:
 153              	.L6:
 344:Middlewares/Third_Party/LwIP/src/core/tcp_out.c ****       pcb->unacked == NULL && pcb->unsent == NULL);
 154              		.loc 1 344 5 is_stmt 1 view .LVU44
 344:Middlewares/Third_Party/LwIP/src/core/tcp_out.c ****       pcb->unacked == NULL && pcb->unsent == NULL);
 155              		.loc 1 344 5 view .LVU45
 156 0068 C36E     		ldr	r3, [r0, #108]
 157 006a 43B1     		cbz	r3, .L18
 158              	.L7:
 344:Middlewares/Third_Party/LwIP/src/core/tcp_out.c ****       pcb->unacked == NULL && pcb->unsent == NULL);
 159              		.loc 1 344 5 discriminator 3 view .LVU46
 344:Middlewares/Third_Party/LwIP/src/core/tcp_out.c ****       pcb->unacked == NULL && pcb->unsent == NULL);
 160              		.loc 1 344 5 discriminator 3 view .LVU47
 161 006c 094B     		ldr	r3, .L19
 162 006e 4FF4AC72 		mov	r2, #344
 163 0072 0B49     		ldr	r1, .L19+12
 164              	.LVL13:
 344:Middlewares/Third_Party/LwIP/src/core/tcp_out.c ****       pcb->unacked == NULL && pcb->unsent == NULL);
 165              		.loc 1 344 5 is_stmt 0 discriminator 3 view .LVU48
 166 0074 0948     		ldr	r0, .L19+8
 167              	.LVL14:
 344:Middlewares/Third_Party/LwIP/src/core/tcp_out.c ****       pcb->unacked == NULL && pcb->unsent == NULL);
 168              		.loc 1 344 5 discriminator 3 view .LVU49
 169 0076 FFF7FEFF 		bl	printf
 170              	.LVL15:
 171              		.loc 1 347 10 discriminator 3 view .LVU50
 172 007a 0020     		movs	r0, #0
 173 007c 08E0     		b	.L3
 174              	.LVL16:
 175              	.L18:
 344:Middlewares/Third_Party/LwIP/src/core/tcp_out.c ****       pcb->unacked == NULL && pcb->unsent == NULL);
 176              		.loc 1 344 5 discriminator 2 view .LVU51
 177 007e 836E     		ldr	r3, [r0, #104]
 178 0080 002B     		cmp	r3, #0
 179 0082 F3D1     		bne	.L7
 180              		.loc 1 347 10 view .LVU52
 181 0084 0020     		movs	r0, #0
 182              	.LVL17:
ARM GAS  /tmp/ccG0FHgO.s 			page 11


 183              		.loc 1 347 10 view .LVU53
 184 0086 03E0     		b	.L3
 185              	.LVL18:
 186              	.L8:
 315:Middlewares/Third_Party/LwIP/src/core/tcp_out.c ****   } else if (len == 0) {
 187              		.loc 1 315 12 view .LVU54
 188 0088 6FF00A00 		mvn	r0, #10
 189              	.LVL19:
 315:Middlewares/Third_Party/LwIP/src/core/tcp_out.c ****   } else if (len == 0) {
 190              		.loc 1 315 12 view .LVU55
 191 008c 00E0     		b	.L3
 192              	.LVL20:
 193              	.L9:
 317:Middlewares/Third_Party/LwIP/src/core/tcp_out.c ****   }
 194              		.loc 1 317 12 view .LVU56
 195 008e 0020     		movs	r0, #0
 196              	.LVL21:
 197              	.L3:
 348:Middlewares/Third_Party/LwIP/src/core/tcp_out.c **** }
 198              		.loc 1 348 1 view .LVU57
 199 0090 08BD     		pop	{r3, pc}
 200              	.L20:
 201 0092 00BF     		.align	2
 202              	.L19:
 203 0094 00000000 		.word	.LC0
 204 0098 30000000 		.word	.LC1
 205 009c 6C000000 		.word	.LC2
 206 00a0 94000000 		.word	.LC3
 207              		.cfi_endproc
 208              	.LFE101:
 210              		.section	.rodata.tcp_pbuf_prealloc.str1.4,"aMS",%progbits,1
 211              		.align	2
 212              	.LC4:
 213 0000 6E656564 		.ascii	"need unchained pbuf\000"
 213      20756E63 
 213      6861696E 
 213      65642070 
 213      62756600 
 214              		.section	.text.tcp_pbuf_prealloc,"ax",%progbits
 215              		.align	1
 216              		.syntax unified
 217              		.thumb
 218              		.thumb_func
 220              	tcp_pbuf_prealloc:
 221              	.LVL22:
 222              	.LFB100:
 236:Middlewares/Third_Party/LwIP/src/core/tcp_out.c ****   struct pbuf *p;
 223              		.loc 1 236 1 is_stmt 1 view -0
 224              		.cfi_startproc
 225              		@ args = 12, pretend = 0, frame = 0
 226              		@ frame_needed = 0, uses_anonymous_args = 0
 236:Middlewares/Third_Party/LwIP/src/core/tcp_out.c ****   struct pbuf *p;
 227              		.loc 1 236 1 is_stmt 0 view .LVU59
 228 0000 70B5     		push	{r4, r5, r6, lr}
 229              	.LCFI1:
 230              		.cfi_def_cfa_offset 16
 231              		.cfi_offset 4, -16
ARM GAS  /tmp/ccG0FHgO.s 			page 12


 232              		.cfi_offset 5, -12
 233              		.cfi_offset 6, -8
 234              		.cfi_offset 14, -4
 235 0002 0C46     		mov	r4, r1
 236 0004 1E46     		mov	r6, r3
 237 0006 9DF81830 		ldrb	r3, [sp, #24]	@ zero_extendqisi2
 238              	.LVL23:
 237:Middlewares/Third_Party/LwIP/src/core/tcp_out.c ****   u16_t alloc = length;
 239              		.loc 1 237 3 is_stmt 1 view .LVU60
 238:Middlewares/Third_Party/LwIP/src/core/tcp_out.c **** 
 240              		.loc 1 238 3 view .LVU61
 247:Middlewares/Third_Party/LwIP/src/core/tcp_out.c ****     /* Should we allocate an oversized pbuf, or just the minimum
 241              		.loc 1 247 3 view .LVU62
 247:Middlewares/Third_Party/LwIP/src/core/tcp_out.c ****     /* Should we allocate an oversized pbuf, or just the minimum
 242              		.loc 1 247 6 is_stmt 0 view .LVU63
 243 000a 9142     		cmp	r1, r2
 244 000c 15D2     		bcs	.L22
 259:Middlewares/Third_Party/LwIP/src/core/tcp_out.c ****         (!(pcb->flags & TF_NODELAY) &&
 245              		.loc 1 259 5 is_stmt 1 view .LVU64
 259:Middlewares/Third_Party/LwIP/src/core/tcp_out.c ****         (!(pcb->flags & TF_NODELAY) &&
 246              		.loc 1 259 8 is_stmt 0 view .LVU65
 247 000e 9DF81410 		ldrb	r1, [sp, #20]	@ zero_extendqisi2
 248              	.LVL24:
 259:Middlewares/Third_Party/LwIP/src/core/tcp_out.c ****         (!(pcb->flags & TF_NODELAY) &&
 249              		.loc 1 259 8 view .LVU66
 250 0012 11F0020F 		tst	r1, #2
 251 0016 08D1     		bne	.L23
 260:Middlewares/Third_Party/LwIP/src/core/tcp_out.c ****          (!first_seg ||
 252              		.loc 1 260 15 discriminator 1 view .LVU67
 253 0018 0499     		ldr	r1, [sp, #16]
 254 001a 897E     		ldrb	r1, [r1, #26]	@ zero_extendqisi2
 259:Middlewares/Third_Party/LwIP/src/core/tcp_out.c ****         (!(pcb->flags & TF_NODELAY) &&
 255              		.loc 1 259 42 discriminator 1 view .LVU68
 256 001c 11F0400F 		tst	r1, #64
 257 0020 26D1     		bne	.L27
 260:Middlewares/Third_Party/LwIP/src/core/tcp_out.c ****          (!first_seg ||
 258              		.loc 1 260 37 view .LVU69
 259 0022 13B1     		cbz	r3, .L23
 262:Middlewares/Third_Party/LwIP/src/core/tcp_out.c ****           pcb->unacked != NULL))) {
 260              		.loc 1 262 14 view .LVU70
 261 0024 049B     		ldr	r3, [sp, #16]
 262 0026 9B6E     		ldr	r3, [r3, #104]
 261:Middlewares/Third_Party/LwIP/src/core/tcp_out.c ****           pcb->unsent != NULL ||
 263              		.loc 1 261 22 view .LVU71
 264 0028 E3B1     		cbz	r3, .L30
 265              	.L23:
 264:Middlewares/Third_Party/LwIP/src/core/tcp_out.c ****     }
 266              		.loc 1 264 7 is_stmt 1 view .LVU72
 264:Middlewares/Third_Party/LwIP/src/core/tcp_out.c ****     }
 267              		.loc 1 264 15 is_stmt 0 view .LVU73
 268 002a 04F21B21 		addw	r1, r4, #539
 269 002e 21F00301 		bic	r1, r1, #3
 270 0032 8A42     		cmp	r2, r1
 271 0034 28BF     		it	cs
 272 0036 0A46     		movcs	r2, r1
 273              	.LVL25:
 264:Middlewares/Third_Party/LwIP/src/core/tcp_out.c ****     }
ARM GAS  /tmp/ccG0FHgO.s 			page 13


 274              		.loc 1 264 13 view .LVU74
 275 0038 91B2     		uxth	r1, r2
 276              	.LVL26:
 277              	.L22:
 268:Middlewares/Third_Party/LwIP/src/core/tcp_out.c ****   if (p == NULL) {
 278              		.loc 1 268 3 is_stmt 1 view .LVU75
 268:Middlewares/Third_Party/LwIP/src/core/tcp_out.c ****   if (p == NULL) {
 279              		.loc 1 268 7 is_stmt 0 view .LVU76
 280 003a 0022     		movs	r2, #0
 281 003c FFF7FEFF 		bl	pbuf_alloc
 282              	.LVL27:
 269:Middlewares/Third_Party/LwIP/src/core/tcp_out.c ****     return NULL;
 283              		.loc 1 269 3 is_stmt 1 view .LVU77
 269:Middlewares/Third_Party/LwIP/src/core/tcp_out.c ****     return NULL;
 284              		.loc 1 269 6 is_stmt 0 view .LVU78
 285 0040 0546     		mov	r5, r0
 286 0042 68B1     		cbz	r0, .L21
 272:Middlewares/Third_Party/LwIP/src/core/tcp_out.c ****   *oversize = p->len - length;
 287              		.loc 1 272 3 is_stmt 1 view .LVU79
 272:Middlewares/Third_Party/LwIP/src/core/tcp_out.c ****   *oversize = p->len - length;
 288              		.loc 1 272 3 view .LVU80
 289 0044 0368     		ldr	r3, [r0]
 290 0046 33B1     		cbz	r3, .L25
 272:Middlewares/Third_Party/LwIP/src/core/tcp_out.c ****   *oversize = p->len - length;
 291              		.loc 1 272 3 discriminator 1 view .LVU81
 272:Middlewares/Third_Party/LwIP/src/core/tcp_out.c ****   *oversize = p->len - length;
 292              		.loc 1 272 3 discriminator 1 view .LVU82
 293 0048 0A4B     		ldr	r3, .L31
 294 004a 4FF48872 		mov	r2, #272
 295 004e 0A49     		ldr	r1, .L31+4
 296 0050 0A48     		ldr	r0, .L31+8
 297              	.LVL28:
 272:Middlewares/Third_Party/LwIP/src/core/tcp_out.c ****   *oversize = p->len - length;
 298              		.loc 1 272 3 is_stmt 0 discriminator 1 view .LVU83
 299 0052 FFF7FEFF 		bl	printf
 300              	.LVL29:
 301              	.L25:
 272:Middlewares/Third_Party/LwIP/src/core/tcp_out.c ****   *oversize = p->len - length;
 302              		.loc 1 272 3 is_stmt 1 discriminator 3 view .LVU84
 272:Middlewares/Third_Party/LwIP/src/core/tcp_out.c ****   *oversize = p->len - length;
 303              		.loc 1 272 3 discriminator 3 view .LVU85
 273:Middlewares/Third_Party/LwIP/src/core/tcp_out.c ****   /* trim p->len to the currently used size */
 304              		.loc 1 273 3 discriminator 3 view .LVU86
 273:Middlewares/Third_Party/LwIP/src/core/tcp_out.c ****   /* trim p->len to the currently used size */
 305              		.loc 1 273 16 is_stmt 0 discriminator 3 view .LVU87
 306 0056 6B89     		ldrh	r3, [r5, #10]
 273:Middlewares/Third_Party/LwIP/src/core/tcp_out.c ****   /* trim p->len to the currently used size */
 307              		.loc 1 273 22 discriminator 3 view .LVU88
 308 0058 1B1B     		subs	r3, r3, r4
 273:Middlewares/Third_Party/LwIP/src/core/tcp_out.c ****   /* trim p->len to the currently used size */
 309              		.loc 1 273 13 discriminator 3 view .LVU89
 310 005a 3380     		strh	r3, [r6]	@ movhi
 275:Middlewares/Third_Party/LwIP/src/core/tcp_out.c ****   return p;
 311              		.loc 1 275 3 is_stmt 1 discriminator 3 view .LVU90
 275:Middlewares/Third_Party/LwIP/src/core/tcp_out.c ****   return p;
 312              		.loc 1 275 23 is_stmt 0 discriminator 3 view .LVU91
 313 005c 2C81     		strh	r4, [r5, #8]	@ movhi
ARM GAS  /tmp/ccG0FHgO.s 			page 14


 275:Middlewares/Third_Party/LwIP/src/core/tcp_out.c ****   return p;
 314              		.loc 1 275 10 discriminator 3 view .LVU92
 315 005e 6C81     		strh	r4, [r5, #10]	@ movhi
 276:Middlewares/Third_Party/LwIP/src/core/tcp_out.c **** }
 316              		.loc 1 276 3 is_stmt 1 discriminator 3 view .LVU93
 317              	.L21:
 277:Middlewares/Third_Party/LwIP/src/core/tcp_out.c **** #else /* TCP_OVERSIZE */
 318              		.loc 1 277 1 is_stmt 0 view .LVU94
 319 0060 2846     		mov	r0, r5
 320 0062 70BD     		pop	{r4, r5, r6, pc}
 321              	.LVL30:
 322              	.L30:
 263:Middlewares/Third_Party/LwIP/src/core/tcp_out.c ****       alloc = LWIP_MIN(max_length, LWIP_MEM_ALIGN_SIZE(TCP_OVERSIZE_CALC_LENGTH(length)));
 323              		.loc 1 263 14 view .LVU95
 324 0064 049B     		ldr	r3, [sp, #16]
 325 0066 DB6E     		ldr	r3, [r3, #108]
 262:Middlewares/Third_Party/LwIP/src/core/tcp_out.c ****           pcb->unacked != NULL))) {
 326              		.loc 1 262 31 view .LVU96
 327 0068 002B     		cmp	r3, #0
 328 006a DED1     		bne	.L23
 238:Middlewares/Third_Party/LwIP/src/core/tcp_out.c **** 
 329              		.loc 1 238 9 view .LVU97
 330 006c 2146     		mov	r1, r4
 331 006e E4E7     		b	.L22
 332              	.L27:
 333 0070 2146     		mov	r1, r4
 334 0072 E2E7     		b	.L22
 335              	.L32:
 336              		.align	2
 337              	.L31:
 338 0074 00000000 		.word	.LC0
 339 0078 00000000 		.word	.LC4
 340 007c 6C000000 		.word	.LC2
 341              		.cfi_endproc
 342              	.LFE100:
 344              		.section	.rodata.tcp_create_segment.str1.4,"aMS",%progbits,1
 345              		.align	2
 346              	.LC5:
 347 0000 702D3E74 		.ascii	"p->tot_len >= optlen\000"
 347      6F745F6C 
 347      656E203E 
 347      3D206F70 
 347      746C656E 
 348              		.section	.text.tcp_create_segment,"ax",%progbits
 349              		.align	1
 350              		.syntax unified
 351              		.thumb
 352              		.thumb_func
 354              	tcp_create_segment:
 355              	.LVL31:
 356              	.LFB99:
 174:Middlewares/Third_Party/LwIP/src/core/tcp_out.c ****   struct tcp_seg *seg;
 357              		.loc 1 174 1 is_stmt 1 view -0
 358              		.cfi_startproc
 359              		@ args = 4, pretend = 0, frame = 0
 360              		@ frame_needed = 0, uses_anonymous_args = 0
 174:Middlewares/Third_Party/LwIP/src/core/tcp_out.c ****   struct tcp_seg *seg;
ARM GAS  /tmp/ccG0FHgO.s 			page 15


 361              		.loc 1 174 1 is_stmt 0 view .LVU99
 362 0000 2DE9F047 		push	{r4, r5, r6, r7, r8, r9, r10, lr}
 363              	.LCFI2:
 364              		.cfi_def_cfa_offset 32
 365              		.cfi_offset 4, -32
 366              		.cfi_offset 5, -28
 367              		.cfi_offset 6, -24
 368              		.cfi_offset 7, -20
 369              		.cfi_offset 8, -16
 370              		.cfi_offset 9, -12
 371              		.cfi_offset 10, -8
 372              		.cfi_offset 14, -4
 373 0004 0746     		mov	r7, r0
 374 0006 0E46     		mov	r6, r1
 375 0008 9046     		mov	r8, r2
 376 000a 9946     		mov	r9, r3
 377 000c 9DF820A0 		ldrb	r10, [sp, #32]	@ zero_extendqisi2
 175:Middlewares/Third_Party/LwIP/src/core/tcp_out.c ****   u8_t optlen = LWIP_TCP_OPT_LENGTH(optflags);
 378              		.loc 1 175 3 is_stmt 1 view .LVU100
 176:Middlewares/Third_Party/LwIP/src/core/tcp_out.c **** 
 379              		.loc 1 176 3 view .LVU101
 380              	.LVL32:
 178:Middlewares/Third_Party/LwIP/src/core/tcp_out.c ****     LWIP_DEBUGF(TCP_OUTPUT_DEBUG | LWIP_DBG_LEVEL_SERIOUS, ("tcp_create_segment: no memory.\n"));
 381              		.loc 1 178 3 view .LVU102
 178:Middlewares/Third_Party/LwIP/src/core/tcp_out.c ****     LWIP_DEBUGF(TCP_OUTPUT_DEBUG | LWIP_DBG_LEVEL_SERIOUS, ("tcp_create_segment: no memory.\n"));
 382              		.loc 1 178 32 is_stmt 0 view .LVU103
 383 0010 0320     		movs	r0, #3
 384              	.LVL33:
 178:Middlewares/Third_Party/LwIP/src/core/tcp_out.c ****     LWIP_DEBUGF(TCP_OUTPUT_DEBUG | LWIP_DBG_LEVEL_SERIOUS, ("tcp_create_segment: no memory.\n"));
 385              		.loc 1 178 32 view .LVU104
 386 0012 FFF7FEFF 		bl	memp_malloc
 387              	.LVL34:
 178:Middlewares/Third_Party/LwIP/src/core/tcp_out.c ****     LWIP_DEBUGF(TCP_OUTPUT_DEBUG | LWIP_DBG_LEVEL_SERIOUS, ("tcp_create_segment: no memory.\n"));
 388              		.loc 1 178 6 view .LVU105
 389 0016 0446     		mov	r4, r0
 390 0018 0028     		cmp	r0, #0
 391 001a 36D0     		beq	.L39
 392 001c 4FEA8A05 		lsl	r5, r10, #2
 393              	.LVL35:
 178:Middlewares/Third_Party/LwIP/src/core/tcp_out.c ****     LWIP_DEBUGF(TCP_OUTPUT_DEBUG | LWIP_DBG_LEVEL_SERIOUS, ("tcp_create_segment: no memory.\n"));
 394              		.loc 1 178 6 view .LVU106
 395 0020 05F00405 		and	r5, r5, #4
 396              	.LVL36:
 183:Middlewares/Third_Party/LwIP/src/core/tcp_out.c ****   seg->next = NULL;
 397              		.loc 1 183 3 is_stmt 1 view .LVU107
 183:Middlewares/Third_Party/LwIP/src/core/tcp_out.c ****   seg->next = NULL;
 398              		.loc 1 183 14 is_stmt 0 view .LVU108
 399 0024 80F80AA0 		strb	r10, [r0, #10]
 184:Middlewares/Third_Party/LwIP/src/core/tcp_out.c ****   seg->p = p;
 400              		.loc 1 184 3 is_stmt 1 view .LVU109
 184:Middlewares/Third_Party/LwIP/src/core/tcp_out.c ****   seg->p = p;
 401              		.loc 1 184 13 is_stmt 0 view .LVU110
 402 0028 0023     		movs	r3, #0
 403 002a 0360     		str	r3, [r0]
 185:Middlewares/Third_Party/LwIP/src/core/tcp_out.c ****   LWIP_ASSERT("p->tot_len >= optlen", p->tot_len >= optlen);
 404              		.loc 1 185 3 is_stmt 1 view .LVU111
 185:Middlewares/Third_Party/LwIP/src/core/tcp_out.c ****   LWIP_ASSERT("p->tot_len >= optlen", p->tot_len >= optlen);
ARM GAS  /tmp/ccG0FHgO.s 			page 16


 405              		.loc 1 185 10 is_stmt 0 view .LVU112
 406 002c 4660     		str	r6, [r0, #4]
 186:Middlewares/Third_Party/LwIP/src/core/tcp_out.c ****   seg->len = p->tot_len - optlen;
 407              		.loc 1 186 3 is_stmt 1 view .LVU113
 186:Middlewares/Third_Party/LwIP/src/core/tcp_out.c ****   seg->len = p->tot_len - optlen;
 408              		.loc 1 186 3 view .LVU114
 409 002e 3389     		ldrh	r3, [r6, #8]
 410 0030 1FFA85FA 		uxth	r10, r5
 411              	.LVL37:
 186:Middlewares/Third_Party/LwIP/src/core/tcp_out.c ****   seg->len = p->tot_len - optlen;
 412              		.loc 1 186 3 is_stmt 0 view .LVU115
 413 0034 5345     		cmp	r3, r10
 414 0036 2CD3     		bcc	.L40
 415              	.LVL38:
 416              	.L36:
 186:Middlewares/Third_Party/LwIP/src/core/tcp_out.c ****   seg->len = p->tot_len - optlen;
 417              		.loc 1 186 3 is_stmt 1 discriminator 3 view .LVU116
 186:Middlewares/Third_Party/LwIP/src/core/tcp_out.c ****   seg->len = p->tot_len - optlen;
 418              		.loc 1 186 3 discriminator 3 view .LVU117
 187:Middlewares/Third_Party/LwIP/src/core/tcp_out.c **** #if TCP_OVERSIZE_DBGCHECK
 419              		.loc 1 187 3 discriminator 3 view .LVU118
 187:Middlewares/Third_Party/LwIP/src/core/tcp_out.c **** #if TCP_OVERSIZE_DBGCHECK
 420              		.loc 1 187 15 is_stmt 0 discriminator 3 view .LVU119
 421 0038 3189     		ldrh	r1, [r6, #8]
 187:Middlewares/Third_Party/LwIP/src/core/tcp_out.c **** #if TCP_OVERSIZE_DBGCHECK
 422              		.loc 1 187 25 discriminator 3 view .LVU120
 423 003a A1EB0A01 		sub	r1, r1, r10
 187:Middlewares/Third_Party/LwIP/src/core/tcp_out.c **** #if TCP_OVERSIZE_DBGCHECK
 424              		.loc 1 187 12 discriminator 3 view .LVU121
 425 003e 2181     		strh	r1, [r4, #8]	@ movhi
 200:Middlewares/Third_Party/LwIP/src/core/tcp_out.c ****     LWIP_DEBUGF(TCP_OUTPUT_DEBUG | LWIP_DBG_LEVEL_SERIOUS, ("tcp_create_segment: no room for TCP he
 426              		.loc 1 200 3 is_stmt 1 discriminator 3 view .LVU122
 200:Middlewares/Third_Party/LwIP/src/core/tcp_out.c ****     LWIP_DEBUGF(TCP_OUTPUT_DEBUG | LWIP_DBG_LEVEL_SERIOUS, ("tcp_create_segment: no room for TCP he
 427              		.loc 1 200 7 is_stmt 0 discriminator 3 view .LVU123
 428 0040 1421     		movs	r1, #20
 429 0042 3046     		mov	r0, r6
 430 0044 FFF7FEFF 		bl	pbuf_header
 431              	.LVL39:
 200:Middlewares/Third_Party/LwIP/src/core/tcp_out.c ****     LWIP_DEBUGF(TCP_OUTPUT_DEBUG | LWIP_DBG_LEVEL_SERIOUS, ("tcp_create_segment: no room for TCP he
 432              		.loc 1 200 6 discriminator 3 view .LVU124
 433 0048 50BB     		cbnz	r0, .L41
 206:Middlewares/Third_Party/LwIP/src/core/tcp_out.c ****   seg->tcphdr->src = lwip_htons(pcb->local_port);
 434              		.loc 1 206 3 is_stmt 1 view .LVU125
 206:Middlewares/Third_Party/LwIP/src/core/tcp_out.c ****   seg->tcphdr->src = lwip_htons(pcb->local_port);
 435              		.loc 1 206 38 is_stmt 0 view .LVU126
 436 004a 6368     		ldr	r3, [r4, #4]
 206:Middlewares/Third_Party/LwIP/src/core/tcp_out.c ****   seg->tcphdr->src = lwip_htons(pcb->local_port);
 437              		.loc 1 206 41 view .LVU127
 438 004c 5E68     		ldr	r6, [r3, #4]
 439              	.LVL40:
 206:Middlewares/Third_Party/LwIP/src/core/tcp_out.c ****   seg->tcphdr->src = lwip_htons(pcb->local_port);
 440              		.loc 1 206 15 view .LVU128
 441 004e E660     		str	r6, [r4, #12]
 207:Middlewares/Third_Party/LwIP/src/core/tcp_out.c ****   seg->tcphdr->dest = lwip_htons(pcb->remote_port);
 442              		.loc 1 207 3 is_stmt 1 view .LVU129
 207:Middlewares/Third_Party/LwIP/src/core/tcp_out.c ****   seg->tcphdr->dest = lwip_htons(pcb->remote_port);
 443              		.loc 1 207 22 is_stmt 0 view .LVU130
ARM GAS  /tmp/ccG0FHgO.s 			page 17


 444 0050 F88A     		ldrh	r0, [r7, #22]
 445 0052 FFF7FEFF 		bl	lwip_htons
 446              	.LVL41:
 207:Middlewares/Third_Party/LwIP/src/core/tcp_out.c ****   seg->tcphdr->dest = lwip_htons(pcb->remote_port);
 447              		.loc 1 207 20 view .LVU131
 448 0056 3080     		strh	r0, [r6]	@ unaligned
 208:Middlewares/Third_Party/LwIP/src/core/tcp_out.c ****   seg->tcphdr->seqno = lwip_htonl(seqno);
 449              		.loc 1 208 3 is_stmt 1 view .LVU132
 208:Middlewares/Third_Party/LwIP/src/core/tcp_out.c ****   seg->tcphdr->seqno = lwip_htonl(seqno);
 450              		.loc 1 208 6 is_stmt 0 view .LVU133
 451 0058 E668     		ldr	r6, [r4, #12]
 208:Middlewares/Third_Party/LwIP/src/core/tcp_out.c ****   seg->tcphdr->seqno = lwip_htonl(seqno);
 452              		.loc 1 208 23 view .LVU134
 453 005a 388B     		ldrh	r0, [r7, #24]
 454 005c FFF7FEFF 		bl	lwip_htons
 455              	.LVL42:
 208:Middlewares/Third_Party/LwIP/src/core/tcp_out.c ****   seg->tcphdr->seqno = lwip_htonl(seqno);
 456              		.loc 1 208 21 view .LVU135
 457 0060 7080     		strh	r0, [r6, #2]	@ unaligned
 209:Middlewares/Third_Party/LwIP/src/core/tcp_out.c ****   /* ackno is set in tcp_output */
 458              		.loc 1 209 3 is_stmt 1 view .LVU136
 209:Middlewares/Third_Party/LwIP/src/core/tcp_out.c ****   /* ackno is set in tcp_output */
 459              		.loc 1 209 6 is_stmt 0 view .LVU137
 460 0062 E668     		ldr	r6, [r4, #12]
 209:Middlewares/Third_Party/LwIP/src/core/tcp_out.c ****   /* ackno is set in tcp_output */
 461              		.loc 1 209 24 view .LVU138
 462 0064 4846     		mov	r0, r9
 463 0066 FFF7FEFF 		bl	lwip_htonl
 464              	.LVL43:
 209:Middlewares/Third_Party/LwIP/src/core/tcp_out.c ****   /* ackno is set in tcp_output */
 465              		.loc 1 209 22 view .LVU139
 466 006a 7060     		str	r0, [r6, #4]	@ unaligned
 211:Middlewares/Third_Party/LwIP/src/core/tcp_out.c ****   /* wnd and chksum are set in tcp_output */
 467              		.loc 1 211 3 is_stmt 1 view .LVU140
 468 006c A808     		lsrs	r0, r5, #2
 469 006e 0530     		adds	r0, r0, #5
 470 0070 E568     		ldr	r5, [r4, #12]
 471 0072 48EA0030 		orr	r0, r8, r0, lsl #12
 472 0076 FFF7FEFF 		bl	lwip_htons
 473              	.LVL44:
 474 007a A881     		strh	r0, [r5, #12]	@ unaligned
 213:Middlewares/Third_Party/LwIP/src/core/tcp_out.c ****   return seg;
 475              		.loc 1 213 3 view .LVU141
 213:Middlewares/Third_Party/LwIP/src/core/tcp_out.c ****   return seg;
 476              		.loc 1 213 6 is_stmt 0 view .LVU142
 477 007c E368     		ldr	r3, [r4, #12]
 213:Middlewares/Third_Party/LwIP/src/core/tcp_out.c ****   return seg;
 478              		.loc 1 213 21 view .LVU143
 479 007e 0022     		movs	r2, #0
 480 0080 9A74     		strb	r2, [r3, #18]
 481 0082 DA74     		strb	r2, [r3, #19]
 214:Middlewares/Third_Party/LwIP/src/core/tcp_out.c **** }
 482              		.loc 1 214 3 is_stmt 1 view .LVU144
 483              	.LVL45:
 484              	.L33:
 215:Middlewares/Third_Party/LwIP/src/core/tcp_out.c **** 
 485              		.loc 1 215 1 is_stmt 0 view .LVU145
ARM GAS  /tmp/ccG0FHgO.s 			page 18


 486 0084 2046     		mov	r0, r4
 487 0086 BDE8F087 		pop	{r4, r5, r6, r7, r8, r9, r10, pc}
 488              	.LVL46:
 489              	.L39:
 179:Middlewares/Third_Party/LwIP/src/core/tcp_out.c ****     pbuf_free(p);
 490              		.loc 1 179 97 is_stmt 1 view .LVU146
 180:Middlewares/Third_Party/LwIP/src/core/tcp_out.c ****     return NULL;
 491              		.loc 1 180 5 view .LVU147
 492 008a 3046     		mov	r0, r6
 493              	.LVL47:
 180:Middlewares/Third_Party/LwIP/src/core/tcp_out.c ****     return NULL;
 494              		.loc 1 180 5 is_stmt 0 view .LVU148
 495 008c FFF7FEFF 		bl	pbuf_free
 496              	.LVL48:
 181:Middlewares/Third_Party/LwIP/src/core/tcp_out.c ****   }
 497              		.loc 1 181 5 is_stmt 1 view .LVU149
 181:Middlewares/Third_Party/LwIP/src/core/tcp_out.c ****   }
 498              		.loc 1 181 12 is_stmt 0 view .LVU150
 499 0090 F8E7     		b	.L33
 500              	.LVL49:
 501              	.L40:
 186:Middlewares/Third_Party/LwIP/src/core/tcp_out.c ****   seg->len = p->tot_len - optlen;
 502              		.loc 1 186 3 is_stmt 1 discriminator 1 view .LVU151
 186:Middlewares/Third_Party/LwIP/src/core/tcp_out.c ****   seg->len = p->tot_len - optlen;
 503              		.loc 1 186 3 discriminator 1 view .LVU152
 504 0092 064B     		ldr	r3, .L42
 505 0094 BA22     		movs	r2, #186
 506 0096 0649     		ldr	r1, .L42+4
 507 0098 0648     		ldr	r0, .L42+8
 508              	.LVL50:
 186:Middlewares/Third_Party/LwIP/src/core/tcp_out.c ****   seg->len = p->tot_len - optlen;
 509              		.loc 1 186 3 is_stmt 0 discriminator 1 view .LVU153
 510 009a FFF7FEFF 		bl	printf
 511              	.LVL51:
 512 009e CBE7     		b	.L36
 513              	.L41:
 201:Middlewares/Third_Party/LwIP/src/core/tcp_out.c ****     TCP_STATS_INC(tcp.err);
 514              		.loc 1 201 118 is_stmt 1 view .LVU154
 202:Middlewares/Third_Party/LwIP/src/core/tcp_out.c ****     tcp_seg_free(seg);
 515              		.loc 1 202 27 view .LVU155
 203:Middlewares/Third_Party/LwIP/src/core/tcp_out.c ****     return NULL;
 516              		.loc 1 203 5 view .LVU156
 517 00a0 2046     		mov	r0, r4
 518 00a2 FFF7FEFF 		bl	tcp_seg_free
 519              	.LVL52:
 204:Middlewares/Third_Party/LwIP/src/core/tcp_out.c ****   }
 520              		.loc 1 204 5 view .LVU157
 204:Middlewares/Third_Party/LwIP/src/core/tcp_out.c ****   }
 521              		.loc 1 204 12 is_stmt 0 view .LVU158
 522 00a6 0024     		movs	r4, #0
 523              	.LVL53:
 204:Middlewares/Third_Party/LwIP/src/core/tcp_out.c ****   }
 524              		.loc 1 204 12 view .LVU159
 525 00a8 ECE7     		b	.L33
 526              	.L43:
 527 00aa 00BF     		.align	2
 528              	.L42:
ARM GAS  /tmp/ccG0FHgO.s 			page 19


 529 00ac 00000000 		.word	.LC0
 530 00b0 00000000 		.word	.LC5
 531 00b4 6C000000 		.word	.LC2
 532              		.cfi_endproc
 533              	.LFE99:
 535              		.section	.rodata.tcp_output_alloc_header.str1.4,"aMS",%progbits,1
 536              		.align	2
 537              	.LC6:
 538 0000 63686563 		.ascii	"check that first pbuf can hold struct tcp_hdr\000"
 538      6B207468 
 538      61742066 
 538      69727374 
 538      20706275 
 539              		.section	.text.tcp_output_alloc_header,"ax",%progbits
 540              		.align	1
 541              		.syntax unified
 542              		.thumb
 543              		.thumb_func
 545              	tcp_output_alloc_header:
 546              	.LVL54:
 547              	.LFB97:
 110:Middlewares/Third_Party/LwIP/src/core/tcp_out.c ****   struct tcp_hdr *tcphdr;
 548              		.loc 1 110 1 is_stmt 1 view -0
 549              		.cfi_startproc
 550              		@ args = 0, pretend = 0, frame = 0
 551              		@ frame_needed = 0, uses_anonymous_args = 0
 110:Middlewares/Third_Party/LwIP/src/core/tcp_out.c ****   struct tcp_hdr *tcphdr;
 552              		.loc 1 110 1 is_stmt 0 view .LVU161
 553 0000 2DE9F041 		push	{r4, r5, r6, r7, r8, lr}
 554              	.LCFI3:
 555              		.cfi_def_cfa_offset 24
 556              		.cfi_offset 4, -24
 557              		.cfi_offset 5, -20
 558              		.cfi_offset 6, -16
 559              		.cfi_offset 7, -12
 560              		.cfi_offset 8, -8
 561              		.cfi_offset 14, -4
 562 0004 0546     		mov	r5, r0
 563 0006 0C46     		mov	r4, r1
 564 0008 9846     		mov	r8, r3
 111:Middlewares/Third_Party/LwIP/src/core/tcp_out.c ****   struct pbuf *p = pbuf_alloc(PBUF_IP, TCP_HLEN + optlen + datalen, PBUF_RAM);
 565              		.loc 1 111 3 is_stmt 1 view .LVU162
 112:Middlewares/Third_Party/LwIP/src/core/tcp_out.c ****   if (p != NULL) {
 566              		.loc 1 112 3 view .LVU163
 112:Middlewares/Third_Party/LwIP/src/core/tcp_out.c ****   if (p != NULL) {
 567              		.loc 1 112 58 is_stmt 0 view .LVU164
 568 000a 1144     		add	r1, r1, r2
 569              	.LVL55:
 112:Middlewares/Third_Party/LwIP/src/core/tcp_out.c ****   if (p != NULL) {
 570              		.loc 1 112 58 view .LVU165
 571 000c 89B2     		uxth	r1, r1
 112:Middlewares/Third_Party/LwIP/src/core/tcp_out.c ****   if (p != NULL) {
 572              		.loc 1 112 20 view .LVU166
 573 000e 1431     		adds	r1, r1, #20
 574 0010 0022     		movs	r2, #0
 575              	.LVL56:
 112:Middlewares/Third_Party/LwIP/src/core/tcp_out.c ****   if (p != NULL) {
ARM GAS  /tmp/ccG0FHgO.s 			page 20


 576              		.loc 1 112 20 view .LVU167
 577 0012 89B2     		uxth	r1, r1
 578 0014 0120     		movs	r0, #1
 579              	.LVL57:
 112:Middlewares/Third_Party/LwIP/src/core/tcp_out.c ****   if (p != NULL) {
 580              		.loc 1 112 20 view .LVU168
 581 0016 FFF7FEFF 		bl	pbuf_alloc
 582              	.LVL58:
 113:Middlewares/Third_Party/LwIP/src/core/tcp_out.c ****     LWIP_ASSERT("check that first pbuf can hold struct tcp_hdr",
 583              		.loc 1 113 3 is_stmt 1 view .LVU169
 113:Middlewares/Third_Party/LwIP/src/core/tcp_out.c ****     LWIP_ASSERT("check that first pbuf can hold struct tcp_hdr",
 584              		.loc 1 113 6 is_stmt 0 view .LVU170
 585 001a 0746     		mov	r7, r0
 586 001c 48B3     		cbz	r0, .L44
 114:Middlewares/Third_Party/LwIP/src/core/tcp_out.c ****                  (p->len >= TCP_HLEN + optlen));
 587              		.loc 1 114 5 is_stmt 1 view .LVU171
 114:Middlewares/Third_Party/LwIP/src/core/tcp_out.c ****                  (p->len >= TCP_HLEN + optlen));
 588              		.loc 1 114 5 view .LVU172
 589 001e 04F11303 		add	r3, r4, #19
 590 0022 4289     		ldrh	r2, [r0, #10]
 591 0024 9342     		cmp	r3, r2
 592 0026 27DA     		bge	.L48
 593              	.LVL59:
 594              	.L46:
 114:Middlewares/Third_Party/LwIP/src/core/tcp_out.c ****                  (p->len >= TCP_HLEN + optlen));
 595              		.loc 1 114 5 discriminator 3 view .LVU173
 114:Middlewares/Third_Party/LwIP/src/core/tcp_out.c ****                  (p->len >= TCP_HLEN + optlen));
 596              		.loc 1 114 5 discriminator 3 view .LVU174
 116:Middlewares/Third_Party/LwIP/src/core/tcp_out.c ****     tcphdr->src = lwip_htons(pcb->local_port);
 597              		.loc 1 116 5 discriminator 3 view .LVU175
 116:Middlewares/Third_Party/LwIP/src/core/tcp_out.c ****     tcphdr->src = lwip_htons(pcb->local_port);
 598              		.loc 1 116 12 is_stmt 0 discriminator 3 view .LVU176
 599 0028 7E68     		ldr	r6, [r7, #4]
 600              	.LVL60:
 117:Middlewares/Third_Party/LwIP/src/core/tcp_out.c ****     tcphdr->dest = lwip_htons(pcb->remote_port);
 601              		.loc 1 117 5 is_stmt 1 discriminator 3 view .LVU177
 117:Middlewares/Third_Party/LwIP/src/core/tcp_out.c ****     tcphdr->dest = lwip_htons(pcb->remote_port);
 602              		.loc 1 117 19 is_stmt 0 discriminator 3 view .LVU178
 603 002a E88A     		ldrh	r0, [r5, #22]
 604 002c FFF7FEFF 		bl	lwip_htons
 605              	.LVL61:
 117:Middlewares/Third_Party/LwIP/src/core/tcp_out.c ****     tcphdr->dest = lwip_htons(pcb->remote_port);
 606              		.loc 1 117 17 discriminator 3 view .LVU179
 607 0030 3080     		strh	r0, [r6]	@ unaligned
 118:Middlewares/Third_Party/LwIP/src/core/tcp_out.c ****     tcphdr->seqno = seqno_be;
 608              		.loc 1 118 5 is_stmt 1 discriminator 3 view .LVU180
 118:Middlewares/Third_Party/LwIP/src/core/tcp_out.c ****     tcphdr->seqno = seqno_be;
 609              		.loc 1 118 20 is_stmt 0 discriminator 3 view .LVU181
 610 0032 288B     		ldrh	r0, [r5, #24]
 611 0034 FFF7FEFF 		bl	lwip_htons
 612              	.LVL62:
 118:Middlewares/Third_Party/LwIP/src/core/tcp_out.c ****     tcphdr->seqno = seqno_be;
 613              		.loc 1 118 18 discriminator 3 view .LVU182
 614 0038 7080     		strh	r0, [r6, #2]	@ unaligned
 119:Middlewares/Third_Party/LwIP/src/core/tcp_out.c ****     tcphdr->ackno = lwip_htonl(pcb->rcv_nxt);
 615              		.loc 1 119 5 is_stmt 1 discriminator 3 view .LVU183
 119:Middlewares/Third_Party/LwIP/src/core/tcp_out.c ****     tcphdr->ackno = lwip_htonl(pcb->rcv_nxt);
ARM GAS  /tmp/ccG0FHgO.s 			page 21


 616              		.loc 1 119 19 is_stmt 0 discriminator 3 view .LVU184
 617 003a C6F80480 		str	r8, [r6, #4]	@ unaligned
 120:Middlewares/Third_Party/LwIP/src/core/tcp_out.c ****     TCPH_HDRLEN_FLAGS_SET(tcphdr, (5 + optlen / 4), TCP_ACK);
 618              		.loc 1 120 5 is_stmt 1 discriminator 3 view .LVU185
 120:Middlewares/Third_Party/LwIP/src/core/tcp_out.c ****     TCPH_HDRLEN_FLAGS_SET(tcphdr, (5 + optlen / 4), TCP_ACK);
 619              		.loc 1 120 21 is_stmt 0 discriminator 3 view .LVU186
 620 003e 686A     		ldr	r0, [r5, #36]
 621 0040 FFF7FEFF 		bl	lwip_htonl
 622              	.LVL63:
 120:Middlewares/Third_Party/LwIP/src/core/tcp_out.c ****     TCPH_HDRLEN_FLAGS_SET(tcphdr, (5 + optlen / 4), TCP_ACK);
 623              		.loc 1 120 19 discriminator 3 view .LVU187
 624 0044 B060     		str	r0, [r6, #8]	@ unaligned
 121:Middlewares/Third_Party/LwIP/src/core/tcp_out.c ****     tcphdr->wnd = lwip_htons(TCPWND_MIN16(RCV_WND_SCALE(pcb, pcb->rcv_ann_wnd)));
 625              		.loc 1 121 5 is_stmt 1 discriminator 3 view .LVU188
 626 0046 A408     		lsrs	r4, r4, #2
 627 0048 0534     		adds	r4, r4, #5
 628 004a 2403     		lsls	r4, r4, #12
 629 004c A4B2     		uxth	r4, r4
 630 004e 44F01000 		orr	r0, r4, #16
 631 0052 FFF7FEFF 		bl	lwip_htons
 632              	.LVL64:
 633 0056 B081     		strh	r0, [r6, #12]	@ unaligned
 122:Middlewares/Third_Party/LwIP/src/core/tcp_out.c ****     tcphdr->chksum = 0;
 634              		.loc 1 122 5 discriminator 3 view .LVU189
 122:Middlewares/Third_Party/LwIP/src/core/tcp_out.c ****     tcphdr->chksum = 0;
 635              		.loc 1 122 19 is_stmt 0 discriminator 3 view .LVU190
 636 0058 688D     		ldrh	r0, [r5, #42]
 637 005a FFF7FEFF 		bl	lwip_htons
 638              	.LVL65:
 122:Middlewares/Third_Party/LwIP/src/core/tcp_out.c ****     tcphdr->chksum = 0;
 639              		.loc 1 122 17 discriminator 3 view .LVU191
 640 005e F081     		strh	r0, [r6, #14]	@ unaligned
 123:Middlewares/Third_Party/LwIP/src/core/tcp_out.c ****     tcphdr->urgp = 0;
 641              		.loc 1 123 5 is_stmt 1 discriminator 3 view .LVU192
 123:Middlewares/Third_Party/LwIP/src/core/tcp_out.c ****     tcphdr->urgp = 0;
 642              		.loc 1 123 20 is_stmt 0 discriminator 3 view .LVU193
 643 0060 0023     		movs	r3, #0
 644 0062 3374     		strb	r3, [r6, #16]
 645 0064 7374     		strb	r3, [r6, #17]
 124:Middlewares/Third_Party/LwIP/src/core/tcp_out.c **** 
 646              		.loc 1 124 5 is_stmt 1 discriminator 3 view .LVU194
 124:Middlewares/Third_Party/LwIP/src/core/tcp_out.c **** 
 647              		.loc 1 124 18 is_stmt 0 discriminator 3 view .LVU195
 648 0066 B374     		strb	r3, [r6, #18]
 649 0068 F374     		strb	r3, [r6, #19]
 127:Middlewares/Third_Party/LwIP/src/core/tcp_out.c ****   }
 650              		.loc 1 127 5 is_stmt 1 discriminator 3 view .LVU196
 127:Middlewares/Third_Party/LwIP/src/core/tcp_out.c ****   }
 651              		.loc 1 127 34 is_stmt 0 discriminator 3 view .LVU197
 652 006a 6B6A     		ldr	r3, [r5, #36]
 127:Middlewares/Third_Party/LwIP/src/core/tcp_out.c ****   }
 653              		.loc 1 127 49 discriminator 3 view .LVU198
 654 006c 6A8D     		ldrh	r2, [r5, #42]
 127:Middlewares/Third_Party/LwIP/src/core/tcp_out.c ****   }
 655              		.loc 1 127 44 discriminator 3 view .LVU199
 656 006e 1344     		add	r3, r3, r2
 127:Middlewares/Third_Party/LwIP/src/core/tcp_out.c ****   }
ARM GAS  /tmp/ccG0FHgO.s 			page 22


 657              		.loc 1 127 29 discriminator 3 view .LVU200
 658 0070 EB62     		str	r3, [r5, #44]
 129:Middlewares/Third_Party/LwIP/src/core/tcp_out.c **** }
 659              		.loc 1 129 3 is_stmt 1 discriminator 3 view .LVU201
 660              	.LVL66:
 661              	.L44:
 130:Middlewares/Third_Party/LwIP/src/core/tcp_out.c **** 
 662              		.loc 1 130 1 is_stmt 0 view .LVU202
 663 0072 3846     		mov	r0, r7
 664 0074 BDE8F081 		pop	{r4, r5, r6, r7, r8, pc}
 665              	.LVL67:
 666              	.L48:
 114:Middlewares/Third_Party/LwIP/src/core/tcp_out.c ****                  (p->len >= TCP_HLEN + optlen));
 667              		.loc 1 114 5 is_stmt 1 discriminator 1 view .LVU203
 114:Middlewares/Third_Party/LwIP/src/core/tcp_out.c ****                  (p->len >= TCP_HLEN + optlen));
 668              		.loc 1 114 5 discriminator 1 view .LVU204
 669 0078 034B     		ldr	r3, .L49
 670 007a 7222     		movs	r2, #114
 671 007c 0349     		ldr	r1, .L49+4
 672 007e 0448     		ldr	r0, .L49+8
 673              	.LVL68:
 114:Middlewares/Third_Party/LwIP/src/core/tcp_out.c ****                  (p->len >= TCP_HLEN + optlen));
 674              		.loc 1 114 5 is_stmt 0 discriminator 1 view .LVU205
 675 0080 FFF7FEFF 		bl	printf
 676              	.LVL69:
 677 0084 D0E7     		b	.L46
 678              	.L50:
 679 0086 00BF     		.align	2
 680              	.L49:
 681 0088 00000000 		.word	.LC0
 682 008c 00000000 		.word	.LC6
 683 0090 6C000000 		.word	.LC2
 684              		.cfi_endproc
 685              	.LFE97:
 687              		.section	.text.tcp_output_segment,"ax",%progbits
 688              		.align	1
 689              		.syntax unified
 690              		.thumb
 691              		.thumb_func
 693              	tcp_output_segment:
 694              	.LVL70:
 695              	.LFB106:
 349:Middlewares/Third_Party/LwIP/src/core/tcp_out.c **** 
 350:Middlewares/Third_Party/LwIP/src/core/tcp_out.c **** /**
 351:Middlewares/Third_Party/LwIP/src/core/tcp_out.c ****  * @ingroup tcp_raw
 352:Middlewares/Third_Party/LwIP/src/core/tcp_out.c ****  * Write data for sending (but does not send it immediately).
 353:Middlewares/Third_Party/LwIP/src/core/tcp_out.c ****  *
 354:Middlewares/Third_Party/LwIP/src/core/tcp_out.c ****  * It waits in the expectation of more data being sent soon (as
 355:Middlewares/Third_Party/LwIP/src/core/tcp_out.c ****  * it can send them more efficiently by combining them together).
 356:Middlewares/Third_Party/LwIP/src/core/tcp_out.c ****  * To prompt the system to send data now, call tcp_output() after
 357:Middlewares/Third_Party/LwIP/src/core/tcp_out.c ****  * calling tcp_write().
 358:Middlewares/Third_Party/LwIP/src/core/tcp_out.c ****  *
 359:Middlewares/Third_Party/LwIP/src/core/tcp_out.c ****  * @param pcb Protocol control block for the TCP connection to enqueue data for.
 360:Middlewares/Third_Party/LwIP/src/core/tcp_out.c ****  * @param arg Pointer to the data to be enqueued for sending.
 361:Middlewares/Third_Party/LwIP/src/core/tcp_out.c ****  * @param len Data length in bytes
 362:Middlewares/Third_Party/LwIP/src/core/tcp_out.c ****  * @param apiflags combination of following flags :
 363:Middlewares/Third_Party/LwIP/src/core/tcp_out.c ****  * - TCP_WRITE_FLAG_COPY (0x01) data will be copied into memory belonging to the stack
ARM GAS  /tmp/ccG0FHgO.s 			page 23


 364:Middlewares/Third_Party/LwIP/src/core/tcp_out.c ****  * - TCP_WRITE_FLAG_MORE (0x02) for TCP connection, PSH flag will not be set on last segment sent,
 365:Middlewares/Third_Party/LwIP/src/core/tcp_out.c ****  * @return ERR_OK if enqueued, another err_t on error
 366:Middlewares/Third_Party/LwIP/src/core/tcp_out.c ****  */
 367:Middlewares/Third_Party/LwIP/src/core/tcp_out.c **** err_t
 368:Middlewares/Third_Party/LwIP/src/core/tcp_out.c **** tcp_write(struct tcp_pcb *pcb, const void *arg, u16_t len, u8_t apiflags)
 369:Middlewares/Third_Party/LwIP/src/core/tcp_out.c **** {
 370:Middlewares/Third_Party/LwIP/src/core/tcp_out.c ****   struct pbuf *concat_p = NULL;
 371:Middlewares/Third_Party/LwIP/src/core/tcp_out.c ****   struct tcp_seg *last_unsent = NULL, *seg = NULL, *prev_seg = NULL, *queue = NULL;
 372:Middlewares/Third_Party/LwIP/src/core/tcp_out.c ****   u16_t pos = 0; /* position in 'arg' data */
 373:Middlewares/Third_Party/LwIP/src/core/tcp_out.c ****   u16_t queuelen;
 374:Middlewares/Third_Party/LwIP/src/core/tcp_out.c ****   u8_t optlen = 0;
 375:Middlewares/Third_Party/LwIP/src/core/tcp_out.c ****   u8_t optflags = 0;
 376:Middlewares/Third_Party/LwIP/src/core/tcp_out.c **** #if TCP_OVERSIZE
 377:Middlewares/Third_Party/LwIP/src/core/tcp_out.c ****   u16_t oversize = 0;
 378:Middlewares/Third_Party/LwIP/src/core/tcp_out.c ****   u16_t oversize_used = 0;
 379:Middlewares/Third_Party/LwIP/src/core/tcp_out.c **** #if TCP_OVERSIZE_DBGCHECK
 380:Middlewares/Third_Party/LwIP/src/core/tcp_out.c ****   u16_t oversize_add = 0;
 381:Middlewares/Third_Party/LwIP/src/core/tcp_out.c **** #endif /* TCP_OVERSIZE_DBGCHECK*/
 382:Middlewares/Third_Party/LwIP/src/core/tcp_out.c **** #endif /* TCP_OVERSIZE */
 383:Middlewares/Third_Party/LwIP/src/core/tcp_out.c ****   u16_t extendlen = 0;
 384:Middlewares/Third_Party/LwIP/src/core/tcp_out.c **** #if TCP_CHECKSUM_ON_COPY
 385:Middlewares/Third_Party/LwIP/src/core/tcp_out.c ****   u16_t concat_chksum = 0;
 386:Middlewares/Third_Party/LwIP/src/core/tcp_out.c ****   u8_t concat_chksum_swapped = 0;
 387:Middlewares/Third_Party/LwIP/src/core/tcp_out.c ****   u16_t concat_chksummed = 0;
 388:Middlewares/Third_Party/LwIP/src/core/tcp_out.c **** #endif /* TCP_CHECKSUM_ON_COPY */
 389:Middlewares/Third_Party/LwIP/src/core/tcp_out.c ****   err_t err;
 390:Middlewares/Third_Party/LwIP/src/core/tcp_out.c ****   /* don't allocate segments bigger than half the maximum window we ever received */
 391:Middlewares/Third_Party/LwIP/src/core/tcp_out.c ****   u16_t mss_local = LWIP_MIN(pcb->mss, TCPWND_MIN16(pcb->snd_wnd_max/2));
 392:Middlewares/Third_Party/LwIP/src/core/tcp_out.c ****   mss_local = mss_local ? mss_local : pcb->mss;
 393:Middlewares/Third_Party/LwIP/src/core/tcp_out.c **** 
 394:Middlewares/Third_Party/LwIP/src/core/tcp_out.c **** #if LWIP_NETIF_TX_SINGLE_PBUF
 395:Middlewares/Third_Party/LwIP/src/core/tcp_out.c ****   /* Always copy to try to create single pbufs for TX */
 396:Middlewares/Third_Party/LwIP/src/core/tcp_out.c ****   apiflags |= TCP_WRITE_FLAG_COPY;
 397:Middlewares/Third_Party/LwIP/src/core/tcp_out.c **** #endif /* LWIP_NETIF_TX_SINGLE_PBUF */
 398:Middlewares/Third_Party/LwIP/src/core/tcp_out.c **** 
 399:Middlewares/Third_Party/LwIP/src/core/tcp_out.c ****   LWIP_DEBUGF(TCP_OUTPUT_DEBUG, ("tcp_write(pcb=%p, data=%p, len=%"U16_F", apiflags=%"U16_F")\n",
 400:Middlewares/Third_Party/LwIP/src/core/tcp_out.c ****     (void *)pcb, arg, len, (u16_t)apiflags));
 401:Middlewares/Third_Party/LwIP/src/core/tcp_out.c ****   LWIP_ERROR("tcp_write: arg == NULL (programmer violates API)",
 402:Middlewares/Third_Party/LwIP/src/core/tcp_out.c ****              arg != NULL, return ERR_ARG;);
 403:Middlewares/Third_Party/LwIP/src/core/tcp_out.c **** 
 404:Middlewares/Third_Party/LwIP/src/core/tcp_out.c ****   err = tcp_write_checks(pcb, len);
 405:Middlewares/Third_Party/LwIP/src/core/tcp_out.c ****   if (err != ERR_OK) {
 406:Middlewares/Third_Party/LwIP/src/core/tcp_out.c ****     return err;
 407:Middlewares/Third_Party/LwIP/src/core/tcp_out.c ****   }
 408:Middlewares/Third_Party/LwIP/src/core/tcp_out.c ****   queuelen = pcb->snd_queuelen;
 409:Middlewares/Third_Party/LwIP/src/core/tcp_out.c **** 
 410:Middlewares/Third_Party/LwIP/src/core/tcp_out.c **** #if LWIP_TCP_TIMESTAMPS
 411:Middlewares/Third_Party/LwIP/src/core/tcp_out.c ****   if ((pcb->flags & TF_TIMESTAMP)) {
 412:Middlewares/Third_Party/LwIP/src/core/tcp_out.c ****     /* Make sure the timestamp option is only included in data segments if we
 413:Middlewares/Third_Party/LwIP/src/core/tcp_out.c ****        agreed about it with the remote host. */
 414:Middlewares/Third_Party/LwIP/src/core/tcp_out.c ****     optflags = TF_SEG_OPTS_TS;
 415:Middlewares/Third_Party/LwIP/src/core/tcp_out.c ****     optlen = LWIP_TCP_OPT_LENGTH(TF_SEG_OPTS_TS);
 416:Middlewares/Third_Party/LwIP/src/core/tcp_out.c ****     /* ensure that segments can hold at least one data byte... */
 417:Middlewares/Third_Party/LwIP/src/core/tcp_out.c ****     mss_local = LWIP_MAX(mss_local, LWIP_TCP_OPT_LEN_TS + 1);
 418:Middlewares/Third_Party/LwIP/src/core/tcp_out.c ****   }
 419:Middlewares/Third_Party/LwIP/src/core/tcp_out.c **** #endif /* LWIP_TCP_TIMESTAMPS */
 420:Middlewares/Third_Party/LwIP/src/core/tcp_out.c **** 
ARM GAS  /tmp/ccG0FHgO.s 			page 24


 421:Middlewares/Third_Party/LwIP/src/core/tcp_out.c **** 
 422:Middlewares/Third_Party/LwIP/src/core/tcp_out.c ****   /*
 423:Middlewares/Third_Party/LwIP/src/core/tcp_out.c ****    * TCP segmentation is done in three phases with increasing complexity:
 424:Middlewares/Third_Party/LwIP/src/core/tcp_out.c ****    *
 425:Middlewares/Third_Party/LwIP/src/core/tcp_out.c ****    * 1. Copy data directly into an oversized pbuf.
 426:Middlewares/Third_Party/LwIP/src/core/tcp_out.c ****    * 2. Chain a new pbuf to the end of pcb->unsent.
 427:Middlewares/Third_Party/LwIP/src/core/tcp_out.c ****    * 3. Create new segments.
 428:Middlewares/Third_Party/LwIP/src/core/tcp_out.c ****    *
 429:Middlewares/Third_Party/LwIP/src/core/tcp_out.c ****    * We may run out of memory at any point. In that case we must
 430:Middlewares/Third_Party/LwIP/src/core/tcp_out.c ****    * return ERR_MEM and not change anything in pcb. Therefore, all
 431:Middlewares/Third_Party/LwIP/src/core/tcp_out.c ****    * changes are recorded in local variables and committed at the end
 432:Middlewares/Third_Party/LwIP/src/core/tcp_out.c ****    * of the function. Some pcb fields are maintained in local copies:
 433:Middlewares/Third_Party/LwIP/src/core/tcp_out.c ****    *
 434:Middlewares/Third_Party/LwIP/src/core/tcp_out.c ****    * queuelen = pcb->snd_queuelen
 435:Middlewares/Third_Party/LwIP/src/core/tcp_out.c ****    * oversize = pcb->unsent_oversize
 436:Middlewares/Third_Party/LwIP/src/core/tcp_out.c ****    *
 437:Middlewares/Third_Party/LwIP/src/core/tcp_out.c ****    * These variables are set consistently by the phases:
 438:Middlewares/Third_Party/LwIP/src/core/tcp_out.c ****    *
 439:Middlewares/Third_Party/LwIP/src/core/tcp_out.c ****    * seg points to the last segment tampered with.
 440:Middlewares/Third_Party/LwIP/src/core/tcp_out.c ****    *
 441:Middlewares/Third_Party/LwIP/src/core/tcp_out.c ****    * pos records progress as data is segmented.
 442:Middlewares/Third_Party/LwIP/src/core/tcp_out.c ****    */
 443:Middlewares/Third_Party/LwIP/src/core/tcp_out.c **** 
 444:Middlewares/Third_Party/LwIP/src/core/tcp_out.c ****   /* Find the tail of the unsent queue. */
 445:Middlewares/Third_Party/LwIP/src/core/tcp_out.c ****   if (pcb->unsent != NULL) {
 446:Middlewares/Third_Party/LwIP/src/core/tcp_out.c ****     u16_t space;
 447:Middlewares/Third_Party/LwIP/src/core/tcp_out.c ****     u16_t unsent_optlen;
 448:Middlewares/Third_Party/LwIP/src/core/tcp_out.c **** 
 449:Middlewares/Third_Party/LwIP/src/core/tcp_out.c ****     /* @todo: this could be sped up by keeping last_unsent in the pcb */
 450:Middlewares/Third_Party/LwIP/src/core/tcp_out.c ****     for (last_unsent = pcb->unsent; last_unsent->next != NULL;
 451:Middlewares/Third_Party/LwIP/src/core/tcp_out.c ****          last_unsent = last_unsent->next);
 452:Middlewares/Third_Party/LwIP/src/core/tcp_out.c **** 
 453:Middlewares/Third_Party/LwIP/src/core/tcp_out.c ****     /* Usable space at the end of the last unsent segment */
 454:Middlewares/Third_Party/LwIP/src/core/tcp_out.c ****     unsent_optlen = LWIP_TCP_OPT_LENGTH(last_unsent->flags);
 455:Middlewares/Third_Party/LwIP/src/core/tcp_out.c ****     LWIP_ASSERT("mss_local is too small", mss_local >= last_unsent->len + unsent_optlen);
 456:Middlewares/Third_Party/LwIP/src/core/tcp_out.c ****     space = mss_local - (last_unsent->len + unsent_optlen);
 457:Middlewares/Third_Party/LwIP/src/core/tcp_out.c **** 
 458:Middlewares/Third_Party/LwIP/src/core/tcp_out.c ****     /*
 459:Middlewares/Third_Party/LwIP/src/core/tcp_out.c ****      * Phase 1: Copy data directly into an oversized pbuf.
 460:Middlewares/Third_Party/LwIP/src/core/tcp_out.c ****      *
 461:Middlewares/Third_Party/LwIP/src/core/tcp_out.c ****      * The number of bytes copied is recorded in the oversize_used
 462:Middlewares/Third_Party/LwIP/src/core/tcp_out.c ****      * variable. The actual copying is done at the bottom of the
 463:Middlewares/Third_Party/LwIP/src/core/tcp_out.c ****      * function.
 464:Middlewares/Third_Party/LwIP/src/core/tcp_out.c ****      */
 465:Middlewares/Third_Party/LwIP/src/core/tcp_out.c **** #if TCP_OVERSIZE
 466:Middlewares/Third_Party/LwIP/src/core/tcp_out.c **** #if TCP_OVERSIZE_DBGCHECK
 467:Middlewares/Third_Party/LwIP/src/core/tcp_out.c ****     /* check that pcb->unsent_oversize matches last_unsent->oversize_left */
 468:Middlewares/Third_Party/LwIP/src/core/tcp_out.c ****     LWIP_ASSERT("unsent_oversize mismatch (pcb vs. last_unsent)",
 469:Middlewares/Third_Party/LwIP/src/core/tcp_out.c ****                 pcb->unsent_oversize == last_unsent->oversize_left);
 470:Middlewares/Third_Party/LwIP/src/core/tcp_out.c **** #endif /* TCP_OVERSIZE_DBGCHECK */
 471:Middlewares/Third_Party/LwIP/src/core/tcp_out.c ****     oversize = pcb->unsent_oversize;
 472:Middlewares/Third_Party/LwIP/src/core/tcp_out.c ****     if (oversize > 0) {
 473:Middlewares/Third_Party/LwIP/src/core/tcp_out.c ****       LWIP_ASSERT("inconsistent oversize vs. space", oversize <= space);
 474:Middlewares/Third_Party/LwIP/src/core/tcp_out.c ****       seg = last_unsent;
 475:Middlewares/Third_Party/LwIP/src/core/tcp_out.c ****       oversize_used = LWIP_MIN(space, LWIP_MIN(oversize, len));
 476:Middlewares/Third_Party/LwIP/src/core/tcp_out.c ****       pos += oversize_used;
 477:Middlewares/Third_Party/LwIP/src/core/tcp_out.c ****       oversize -= oversize_used;
ARM GAS  /tmp/ccG0FHgO.s 			page 25


 478:Middlewares/Third_Party/LwIP/src/core/tcp_out.c ****       space -= oversize_used;
 479:Middlewares/Third_Party/LwIP/src/core/tcp_out.c ****     }
 480:Middlewares/Third_Party/LwIP/src/core/tcp_out.c ****     /* now we are either finished or oversize is zero */
 481:Middlewares/Third_Party/LwIP/src/core/tcp_out.c ****     LWIP_ASSERT("inconsistent oversize vs. len", (oversize == 0) || (pos == len));
 482:Middlewares/Third_Party/LwIP/src/core/tcp_out.c **** #endif /* TCP_OVERSIZE */
 483:Middlewares/Third_Party/LwIP/src/core/tcp_out.c **** 
 484:Middlewares/Third_Party/LwIP/src/core/tcp_out.c ****     /*
 485:Middlewares/Third_Party/LwIP/src/core/tcp_out.c ****      * Phase 2: Chain a new pbuf to the end of pcb->unsent.
 486:Middlewares/Third_Party/LwIP/src/core/tcp_out.c ****      *
 487:Middlewares/Third_Party/LwIP/src/core/tcp_out.c ****      * As an exception when NOT copying the data, if the given data buffer
 488:Middlewares/Third_Party/LwIP/src/core/tcp_out.c ****      * directly follows the last unsent data buffer in memory, extend the last
 489:Middlewares/Third_Party/LwIP/src/core/tcp_out.c ****      * ROM pbuf reference to the buffer, thus saving a ROM pbuf allocation.
 490:Middlewares/Third_Party/LwIP/src/core/tcp_out.c ****      *
 491:Middlewares/Third_Party/LwIP/src/core/tcp_out.c ****      * We don't extend segments containing SYN/FIN flags or options
 492:Middlewares/Third_Party/LwIP/src/core/tcp_out.c ****      * (len==0). The new pbuf is kept in concat_p and pbuf_cat'ed at
 493:Middlewares/Third_Party/LwIP/src/core/tcp_out.c ****      * the end.
 494:Middlewares/Third_Party/LwIP/src/core/tcp_out.c ****      */
 495:Middlewares/Third_Party/LwIP/src/core/tcp_out.c ****     if ((pos < len) && (space > 0) && (last_unsent->len > 0)) {
 496:Middlewares/Third_Party/LwIP/src/core/tcp_out.c ****       u16_t seglen = LWIP_MIN(space, len - pos);
 497:Middlewares/Third_Party/LwIP/src/core/tcp_out.c ****       seg = last_unsent;
 498:Middlewares/Third_Party/LwIP/src/core/tcp_out.c **** 
 499:Middlewares/Third_Party/LwIP/src/core/tcp_out.c ****       /* Create a pbuf with a copy or reference to seglen bytes. We
 500:Middlewares/Third_Party/LwIP/src/core/tcp_out.c ****        * can use PBUF_RAW here since the data appears in the middle of
 501:Middlewares/Third_Party/LwIP/src/core/tcp_out.c ****        * a segment. A header will never be prepended. */
 502:Middlewares/Third_Party/LwIP/src/core/tcp_out.c ****       if (apiflags & TCP_WRITE_FLAG_COPY) {
 503:Middlewares/Third_Party/LwIP/src/core/tcp_out.c ****         /* Data is copied */
 504:Middlewares/Third_Party/LwIP/src/core/tcp_out.c ****         if ((concat_p = tcp_pbuf_prealloc(PBUF_RAW, seglen, space, &oversize, pcb, apiflags, 1)) ==
 505:Middlewares/Third_Party/LwIP/src/core/tcp_out.c ****           LWIP_DEBUGF(TCP_OUTPUT_DEBUG | LWIP_DBG_LEVEL_SERIOUS,
 506:Middlewares/Third_Party/LwIP/src/core/tcp_out.c ****                       ("tcp_write : could not allocate memory for pbuf copy size %"U16_F"\n",
 507:Middlewares/Third_Party/LwIP/src/core/tcp_out.c ****                        seglen));
 508:Middlewares/Third_Party/LwIP/src/core/tcp_out.c ****           goto memerr;
 509:Middlewares/Third_Party/LwIP/src/core/tcp_out.c ****         }
 510:Middlewares/Third_Party/LwIP/src/core/tcp_out.c **** #if TCP_OVERSIZE_DBGCHECK
 511:Middlewares/Third_Party/LwIP/src/core/tcp_out.c ****         oversize_add = oversize;
 512:Middlewares/Third_Party/LwIP/src/core/tcp_out.c **** #endif /* TCP_OVERSIZE_DBGCHECK */
 513:Middlewares/Third_Party/LwIP/src/core/tcp_out.c ****         TCP_DATA_COPY2(concat_p->payload, (const u8_t*)arg + pos, seglen, &concat_chksum, &concat_c
 514:Middlewares/Third_Party/LwIP/src/core/tcp_out.c **** #if TCP_CHECKSUM_ON_COPY
 515:Middlewares/Third_Party/LwIP/src/core/tcp_out.c ****         concat_chksummed += seglen;
 516:Middlewares/Third_Party/LwIP/src/core/tcp_out.c **** #endif /* TCP_CHECKSUM_ON_COPY */
 517:Middlewares/Third_Party/LwIP/src/core/tcp_out.c ****         queuelen += pbuf_clen(concat_p);
 518:Middlewares/Third_Party/LwIP/src/core/tcp_out.c ****       } else {
 519:Middlewares/Third_Party/LwIP/src/core/tcp_out.c ****         /* Data is not copied */
 520:Middlewares/Third_Party/LwIP/src/core/tcp_out.c ****         /* If the last unsent pbuf is of type PBUF_ROM, try to extend it. */
 521:Middlewares/Third_Party/LwIP/src/core/tcp_out.c ****         struct pbuf *p;
 522:Middlewares/Third_Party/LwIP/src/core/tcp_out.c ****         for (p = last_unsent->p; p->next != NULL; p = p->next);
 523:Middlewares/Third_Party/LwIP/src/core/tcp_out.c ****         if (p->type == PBUF_ROM && (const u8_t *)p->payload + p->len == (const u8_t *)arg) {
 524:Middlewares/Third_Party/LwIP/src/core/tcp_out.c ****           LWIP_ASSERT("tcp_write: ROM pbufs cannot be oversized", pos == 0);
 525:Middlewares/Third_Party/LwIP/src/core/tcp_out.c ****           extendlen = seglen;
 526:Middlewares/Third_Party/LwIP/src/core/tcp_out.c ****         } else {
 527:Middlewares/Third_Party/LwIP/src/core/tcp_out.c ****           if ((concat_p = pbuf_alloc(PBUF_RAW, seglen, PBUF_ROM)) == NULL) {
 528:Middlewares/Third_Party/LwIP/src/core/tcp_out.c ****             LWIP_DEBUGF(TCP_OUTPUT_DEBUG | LWIP_DBG_LEVEL_SERIOUS,
 529:Middlewares/Third_Party/LwIP/src/core/tcp_out.c ****                         ("tcp_write: could not allocate memory for zero-copy pbuf\n"));
 530:Middlewares/Third_Party/LwIP/src/core/tcp_out.c ****             goto memerr;
 531:Middlewares/Third_Party/LwIP/src/core/tcp_out.c ****           }
 532:Middlewares/Third_Party/LwIP/src/core/tcp_out.c ****           /* reference the non-volatile payload data */
 533:Middlewares/Third_Party/LwIP/src/core/tcp_out.c ****           ((struct pbuf_rom*)concat_p)->payload = (const u8_t*)arg + pos;
 534:Middlewares/Third_Party/LwIP/src/core/tcp_out.c ****           queuelen += pbuf_clen(concat_p);
ARM GAS  /tmp/ccG0FHgO.s 			page 26


 535:Middlewares/Third_Party/LwIP/src/core/tcp_out.c ****         }
 536:Middlewares/Third_Party/LwIP/src/core/tcp_out.c **** #if TCP_CHECKSUM_ON_COPY
 537:Middlewares/Third_Party/LwIP/src/core/tcp_out.c ****         /* calculate the checksum of nocopy-data */
 538:Middlewares/Third_Party/LwIP/src/core/tcp_out.c ****         tcp_seg_add_chksum(~inet_chksum((const u8_t*)arg + pos, seglen), seglen,
 539:Middlewares/Third_Party/LwIP/src/core/tcp_out.c ****           &concat_chksum, &concat_chksum_swapped);
 540:Middlewares/Third_Party/LwIP/src/core/tcp_out.c ****         concat_chksummed += seglen;
 541:Middlewares/Third_Party/LwIP/src/core/tcp_out.c **** #endif /* TCP_CHECKSUM_ON_COPY */
 542:Middlewares/Third_Party/LwIP/src/core/tcp_out.c ****       }
 543:Middlewares/Third_Party/LwIP/src/core/tcp_out.c **** 
 544:Middlewares/Third_Party/LwIP/src/core/tcp_out.c ****       pos += seglen;
 545:Middlewares/Third_Party/LwIP/src/core/tcp_out.c ****     }
 546:Middlewares/Third_Party/LwIP/src/core/tcp_out.c ****   } else {
 547:Middlewares/Third_Party/LwIP/src/core/tcp_out.c **** #if TCP_OVERSIZE
 548:Middlewares/Third_Party/LwIP/src/core/tcp_out.c ****     LWIP_ASSERT("unsent_oversize mismatch (pcb->unsent is NULL)",
 549:Middlewares/Third_Party/LwIP/src/core/tcp_out.c ****                 pcb->unsent_oversize == 0);
 550:Middlewares/Third_Party/LwIP/src/core/tcp_out.c **** #endif /* TCP_OVERSIZE */
 551:Middlewares/Third_Party/LwIP/src/core/tcp_out.c ****   }
 552:Middlewares/Third_Party/LwIP/src/core/tcp_out.c **** 
 553:Middlewares/Third_Party/LwIP/src/core/tcp_out.c ****   /*
 554:Middlewares/Third_Party/LwIP/src/core/tcp_out.c ****    * Phase 3: Create new segments.
 555:Middlewares/Third_Party/LwIP/src/core/tcp_out.c ****    *
 556:Middlewares/Third_Party/LwIP/src/core/tcp_out.c ****    * The new segments are chained together in the local 'queue'
 557:Middlewares/Third_Party/LwIP/src/core/tcp_out.c ****    * variable, ready to be appended to pcb->unsent.
 558:Middlewares/Third_Party/LwIP/src/core/tcp_out.c ****    */
 559:Middlewares/Third_Party/LwIP/src/core/tcp_out.c ****   while (pos < len) {
 560:Middlewares/Third_Party/LwIP/src/core/tcp_out.c ****     struct pbuf *p;
 561:Middlewares/Third_Party/LwIP/src/core/tcp_out.c ****     u16_t left = len - pos;
 562:Middlewares/Third_Party/LwIP/src/core/tcp_out.c ****     u16_t max_len = mss_local - optlen;
 563:Middlewares/Third_Party/LwIP/src/core/tcp_out.c ****     u16_t seglen = LWIP_MIN(left, max_len);
 564:Middlewares/Third_Party/LwIP/src/core/tcp_out.c **** #if TCP_CHECKSUM_ON_COPY
 565:Middlewares/Third_Party/LwIP/src/core/tcp_out.c ****     u16_t chksum = 0;
 566:Middlewares/Third_Party/LwIP/src/core/tcp_out.c ****     u8_t chksum_swapped = 0;
 567:Middlewares/Third_Party/LwIP/src/core/tcp_out.c **** #endif /* TCP_CHECKSUM_ON_COPY */
 568:Middlewares/Third_Party/LwIP/src/core/tcp_out.c **** 
 569:Middlewares/Third_Party/LwIP/src/core/tcp_out.c ****     if (apiflags & TCP_WRITE_FLAG_COPY) {
 570:Middlewares/Third_Party/LwIP/src/core/tcp_out.c ****       /* If copy is set, memory should be allocated and data copied
 571:Middlewares/Third_Party/LwIP/src/core/tcp_out.c ****        * into pbuf */
 572:Middlewares/Third_Party/LwIP/src/core/tcp_out.c ****       if ((p = tcp_pbuf_prealloc(PBUF_TRANSPORT, seglen + optlen, mss_local, &oversize, pcb, apifla
 573:Middlewares/Third_Party/LwIP/src/core/tcp_out.c ****         LWIP_DEBUGF(TCP_OUTPUT_DEBUG | LWIP_DBG_LEVEL_SERIOUS, ("tcp_write : could not allocate mem
 574:Middlewares/Third_Party/LwIP/src/core/tcp_out.c ****         goto memerr;
 575:Middlewares/Third_Party/LwIP/src/core/tcp_out.c ****       }
 576:Middlewares/Third_Party/LwIP/src/core/tcp_out.c ****       LWIP_ASSERT("tcp_write: check that first pbuf can hold the complete seglen",
 577:Middlewares/Third_Party/LwIP/src/core/tcp_out.c ****                   (p->len >= seglen));
 578:Middlewares/Third_Party/LwIP/src/core/tcp_out.c ****       TCP_DATA_COPY2((char *)p->payload + optlen, (const u8_t*)arg + pos, seglen, &chksum, &chksum_
 579:Middlewares/Third_Party/LwIP/src/core/tcp_out.c ****     } else {
 580:Middlewares/Third_Party/LwIP/src/core/tcp_out.c ****       /* Copy is not set: First allocate a pbuf for holding the data.
 581:Middlewares/Third_Party/LwIP/src/core/tcp_out.c ****        * Since the referenced data is available at least until it is
 582:Middlewares/Third_Party/LwIP/src/core/tcp_out.c ****        * sent out on the link (as it has to be ACKed by the remote
 583:Middlewares/Third_Party/LwIP/src/core/tcp_out.c ****        * party) we can safely use PBUF_ROM instead of PBUF_REF here.
 584:Middlewares/Third_Party/LwIP/src/core/tcp_out.c ****        */
 585:Middlewares/Third_Party/LwIP/src/core/tcp_out.c ****       struct pbuf *p2;
 586:Middlewares/Third_Party/LwIP/src/core/tcp_out.c **** #if TCP_OVERSIZE
 587:Middlewares/Third_Party/LwIP/src/core/tcp_out.c ****       LWIP_ASSERT("oversize == 0", oversize == 0);
 588:Middlewares/Third_Party/LwIP/src/core/tcp_out.c **** #endif /* TCP_OVERSIZE */
 589:Middlewares/Third_Party/LwIP/src/core/tcp_out.c ****       if ((p2 = pbuf_alloc(PBUF_TRANSPORT, seglen, PBUF_ROM)) == NULL) {
 590:Middlewares/Third_Party/LwIP/src/core/tcp_out.c ****         LWIP_DEBUGF(TCP_OUTPUT_DEBUG | LWIP_DBG_LEVEL_SERIOUS, ("tcp_write: could not allocate memo
 591:Middlewares/Third_Party/LwIP/src/core/tcp_out.c ****         goto memerr;
ARM GAS  /tmp/ccG0FHgO.s 			page 27


 592:Middlewares/Third_Party/LwIP/src/core/tcp_out.c ****       }
 593:Middlewares/Third_Party/LwIP/src/core/tcp_out.c **** #if TCP_CHECKSUM_ON_COPY
 594:Middlewares/Third_Party/LwIP/src/core/tcp_out.c ****       /* calculate the checksum of nocopy-data */
 595:Middlewares/Third_Party/LwIP/src/core/tcp_out.c ****       chksum = ~inet_chksum((const u8_t*)arg + pos, seglen);
 596:Middlewares/Third_Party/LwIP/src/core/tcp_out.c ****       if (seglen & 1) {
 597:Middlewares/Third_Party/LwIP/src/core/tcp_out.c ****         chksum_swapped = 1;
 598:Middlewares/Third_Party/LwIP/src/core/tcp_out.c ****         chksum = SWAP_BYTES_IN_WORD(chksum);
 599:Middlewares/Third_Party/LwIP/src/core/tcp_out.c ****       }
 600:Middlewares/Third_Party/LwIP/src/core/tcp_out.c **** #endif /* TCP_CHECKSUM_ON_COPY */
 601:Middlewares/Third_Party/LwIP/src/core/tcp_out.c ****       /* reference the non-volatile payload data */
 602:Middlewares/Third_Party/LwIP/src/core/tcp_out.c ****       ((struct pbuf_rom*)p2)->payload = (const u8_t*)arg + pos;
 603:Middlewares/Third_Party/LwIP/src/core/tcp_out.c **** 
 604:Middlewares/Third_Party/LwIP/src/core/tcp_out.c ****       /* Second, allocate a pbuf for the headers. */
 605:Middlewares/Third_Party/LwIP/src/core/tcp_out.c ****       if ((p = pbuf_alloc(PBUF_TRANSPORT, optlen, PBUF_RAM)) == NULL) {
 606:Middlewares/Third_Party/LwIP/src/core/tcp_out.c ****         /* If allocation fails, we have to deallocate the data pbuf as
 607:Middlewares/Third_Party/LwIP/src/core/tcp_out.c ****          * well. */
 608:Middlewares/Third_Party/LwIP/src/core/tcp_out.c ****         pbuf_free(p2);
 609:Middlewares/Third_Party/LwIP/src/core/tcp_out.c ****         LWIP_DEBUGF(TCP_OUTPUT_DEBUG | LWIP_DBG_LEVEL_SERIOUS, ("tcp_write: could not allocate memo
 610:Middlewares/Third_Party/LwIP/src/core/tcp_out.c ****         goto memerr;
 611:Middlewares/Third_Party/LwIP/src/core/tcp_out.c ****       }
 612:Middlewares/Third_Party/LwIP/src/core/tcp_out.c ****       /* Concatenate the headers and data pbufs together. */
 613:Middlewares/Third_Party/LwIP/src/core/tcp_out.c ****       pbuf_cat(p/*header*/, p2/*data*/);
 614:Middlewares/Third_Party/LwIP/src/core/tcp_out.c ****     }
 615:Middlewares/Third_Party/LwIP/src/core/tcp_out.c **** 
 616:Middlewares/Third_Party/LwIP/src/core/tcp_out.c ****     queuelen += pbuf_clen(p);
 617:Middlewares/Third_Party/LwIP/src/core/tcp_out.c **** 
 618:Middlewares/Third_Party/LwIP/src/core/tcp_out.c ****     /* Now that there are more segments queued, we check again if the
 619:Middlewares/Third_Party/LwIP/src/core/tcp_out.c ****      * length of the queue exceeds the configured maximum or
 620:Middlewares/Third_Party/LwIP/src/core/tcp_out.c ****      * overflows. */
 621:Middlewares/Third_Party/LwIP/src/core/tcp_out.c ****     if ((queuelen > TCP_SND_QUEUELEN) || (queuelen > TCP_SNDQUEUELEN_OVERFLOW)) {
 622:Middlewares/Third_Party/LwIP/src/core/tcp_out.c ****       LWIP_DEBUGF(TCP_OUTPUT_DEBUG | LWIP_DBG_LEVEL_SERIOUS, ("tcp_write: queue too long %"U16_F" (
 623:Middlewares/Third_Party/LwIP/src/core/tcp_out.c ****         queuelen, (int)TCP_SND_QUEUELEN));
 624:Middlewares/Third_Party/LwIP/src/core/tcp_out.c ****       pbuf_free(p);
 625:Middlewares/Third_Party/LwIP/src/core/tcp_out.c ****       goto memerr;
 626:Middlewares/Third_Party/LwIP/src/core/tcp_out.c ****     }
 627:Middlewares/Third_Party/LwIP/src/core/tcp_out.c **** 
 628:Middlewares/Third_Party/LwIP/src/core/tcp_out.c ****     if ((seg = tcp_create_segment(pcb, p, 0, pcb->snd_lbb + pos, optflags)) == NULL) {
 629:Middlewares/Third_Party/LwIP/src/core/tcp_out.c ****       goto memerr;
 630:Middlewares/Third_Party/LwIP/src/core/tcp_out.c ****     }
 631:Middlewares/Third_Party/LwIP/src/core/tcp_out.c **** #if TCP_OVERSIZE_DBGCHECK
 632:Middlewares/Third_Party/LwIP/src/core/tcp_out.c ****     seg->oversize_left = oversize;
 633:Middlewares/Third_Party/LwIP/src/core/tcp_out.c **** #endif /* TCP_OVERSIZE_DBGCHECK */
 634:Middlewares/Third_Party/LwIP/src/core/tcp_out.c **** #if TCP_CHECKSUM_ON_COPY
 635:Middlewares/Third_Party/LwIP/src/core/tcp_out.c ****     seg->chksum = chksum;
 636:Middlewares/Third_Party/LwIP/src/core/tcp_out.c ****     seg->chksum_swapped = chksum_swapped;
 637:Middlewares/Third_Party/LwIP/src/core/tcp_out.c ****     seg->flags |= TF_SEG_DATA_CHECKSUMMED;
 638:Middlewares/Third_Party/LwIP/src/core/tcp_out.c **** #endif /* TCP_CHECKSUM_ON_COPY */
 639:Middlewares/Third_Party/LwIP/src/core/tcp_out.c **** 
 640:Middlewares/Third_Party/LwIP/src/core/tcp_out.c ****     /* first segment of to-be-queued data? */
 641:Middlewares/Third_Party/LwIP/src/core/tcp_out.c ****     if (queue == NULL) {
 642:Middlewares/Third_Party/LwIP/src/core/tcp_out.c ****       queue = seg;
 643:Middlewares/Third_Party/LwIP/src/core/tcp_out.c ****     } else {
 644:Middlewares/Third_Party/LwIP/src/core/tcp_out.c ****       /* Attach the segment to the end of the queued segments */
 645:Middlewares/Third_Party/LwIP/src/core/tcp_out.c ****       LWIP_ASSERT("prev_seg != NULL", prev_seg != NULL);
 646:Middlewares/Third_Party/LwIP/src/core/tcp_out.c ****       prev_seg->next = seg;
 647:Middlewares/Third_Party/LwIP/src/core/tcp_out.c ****     }
 648:Middlewares/Third_Party/LwIP/src/core/tcp_out.c ****     /* remember last segment of to-be-queued data for next iteration */
ARM GAS  /tmp/ccG0FHgO.s 			page 28


 649:Middlewares/Third_Party/LwIP/src/core/tcp_out.c ****     prev_seg = seg;
 650:Middlewares/Third_Party/LwIP/src/core/tcp_out.c **** 
 651:Middlewares/Third_Party/LwIP/src/core/tcp_out.c ****     LWIP_DEBUGF(TCP_OUTPUT_DEBUG | LWIP_DBG_TRACE, ("tcp_write: queueing %"U32_F":%"U32_F"\n",
 652:Middlewares/Third_Party/LwIP/src/core/tcp_out.c ****       lwip_ntohl(seg->tcphdr->seqno),
 653:Middlewares/Third_Party/LwIP/src/core/tcp_out.c ****       lwip_ntohl(seg->tcphdr->seqno) + TCP_TCPLEN(seg)));
 654:Middlewares/Third_Party/LwIP/src/core/tcp_out.c **** 
 655:Middlewares/Third_Party/LwIP/src/core/tcp_out.c ****     pos += seglen;
 656:Middlewares/Third_Party/LwIP/src/core/tcp_out.c ****   }
 657:Middlewares/Third_Party/LwIP/src/core/tcp_out.c **** 
 658:Middlewares/Third_Party/LwIP/src/core/tcp_out.c ****   /*
 659:Middlewares/Third_Party/LwIP/src/core/tcp_out.c ****    * All three segmentation phases were successful. We can commit the
 660:Middlewares/Third_Party/LwIP/src/core/tcp_out.c ****    * transaction.
 661:Middlewares/Third_Party/LwIP/src/core/tcp_out.c ****    */
 662:Middlewares/Third_Party/LwIP/src/core/tcp_out.c **** #if TCP_OVERSIZE_DBGCHECK
 663:Middlewares/Third_Party/LwIP/src/core/tcp_out.c ****   if ((last_unsent != NULL) && (oversize_add != 0)) {
 664:Middlewares/Third_Party/LwIP/src/core/tcp_out.c ****     last_unsent->oversize_left += oversize_add;
 665:Middlewares/Third_Party/LwIP/src/core/tcp_out.c ****   }
 666:Middlewares/Third_Party/LwIP/src/core/tcp_out.c **** #endif /* TCP_OVERSIZE_DBGCHECK */
 667:Middlewares/Third_Party/LwIP/src/core/tcp_out.c **** 
 668:Middlewares/Third_Party/LwIP/src/core/tcp_out.c ****   /*
 669:Middlewares/Third_Party/LwIP/src/core/tcp_out.c ****    * Phase 1: If data has been added to the preallocated tail of
 670:Middlewares/Third_Party/LwIP/src/core/tcp_out.c ****    * last_unsent, we update the length fields of the pbuf chain.
 671:Middlewares/Third_Party/LwIP/src/core/tcp_out.c ****    */
 672:Middlewares/Third_Party/LwIP/src/core/tcp_out.c **** #if TCP_OVERSIZE
 673:Middlewares/Third_Party/LwIP/src/core/tcp_out.c ****   if (oversize_used > 0) {
 674:Middlewares/Third_Party/LwIP/src/core/tcp_out.c ****     struct pbuf *p;
 675:Middlewares/Third_Party/LwIP/src/core/tcp_out.c ****     /* Bump tot_len of whole chain, len of tail */
 676:Middlewares/Third_Party/LwIP/src/core/tcp_out.c ****     for (p = last_unsent->p; p; p = p->next) {
 677:Middlewares/Third_Party/LwIP/src/core/tcp_out.c ****       p->tot_len += oversize_used;
 678:Middlewares/Third_Party/LwIP/src/core/tcp_out.c ****       if (p->next == NULL) {
 679:Middlewares/Third_Party/LwIP/src/core/tcp_out.c ****         TCP_DATA_COPY((char *)p->payload + p->len, arg, oversize_used, last_unsent);
 680:Middlewares/Third_Party/LwIP/src/core/tcp_out.c ****         p->len += oversize_used;
 681:Middlewares/Third_Party/LwIP/src/core/tcp_out.c ****       }
 682:Middlewares/Third_Party/LwIP/src/core/tcp_out.c ****     }
 683:Middlewares/Third_Party/LwIP/src/core/tcp_out.c ****     last_unsent->len += oversize_used;
 684:Middlewares/Third_Party/LwIP/src/core/tcp_out.c **** #if TCP_OVERSIZE_DBGCHECK
 685:Middlewares/Third_Party/LwIP/src/core/tcp_out.c ****     LWIP_ASSERT("last_unsent->oversize_left >= oversize_used",
 686:Middlewares/Third_Party/LwIP/src/core/tcp_out.c ****                 last_unsent->oversize_left >= oversize_used);
 687:Middlewares/Third_Party/LwIP/src/core/tcp_out.c ****     last_unsent->oversize_left -= oversize_used;
 688:Middlewares/Third_Party/LwIP/src/core/tcp_out.c **** #endif /* TCP_OVERSIZE_DBGCHECK */
 689:Middlewares/Third_Party/LwIP/src/core/tcp_out.c ****   }
 690:Middlewares/Third_Party/LwIP/src/core/tcp_out.c ****   pcb->unsent_oversize = oversize;
 691:Middlewares/Third_Party/LwIP/src/core/tcp_out.c **** #endif /* TCP_OVERSIZE */
 692:Middlewares/Third_Party/LwIP/src/core/tcp_out.c **** 
 693:Middlewares/Third_Party/LwIP/src/core/tcp_out.c ****   /*
 694:Middlewares/Third_Party/LwIP/src/core/tcp_out.c ****    * Phase 2: concat_p can be concatenated onto last_unsent->p, unless we
 695:Middlewares/Third_Party/LwIP/src/core/tcp_out.c ****    * determined that the last ROM pbuf can be extended to include the new data.
 696:Middlewares/Third_Party/LwIP/src/core/tcp_out.c ****    */
 697:Middlewares/Third_Party/LwIP/src/core/tcp_out.c ****   if (concat_p != NULL) {
 698:Middlewares/Third_Party/LwIP/src/core/tcp_out.c ****     LWIP_ASSERT("tcp_write: cannot concatenate when pcb->unsent is empty",
 699:Middlewares/Third_Party/LwIP/src/core/tcp_out.c ****       (last_unsent != NULL));
 700:Middlewares/Third_Party/LwIP/src/core/tcp_out.c ****     pbuf_cat(last_unsent->p, concat_p);
 701:Middlewares/Third_Party/LwIP/src/core/tcp_out.c ****     last_unsent->len += concat_p->tot_len;
 702:Middlewares/Third_Party/LwIP/src/core/tcp_out.c ****   } else if (extendlen > 0) {
 703:Middlewares/Third_Party/LwIP/src/core/tcp_out.c ****     struct pbuf *p;
 704:Middlewares/Third_Party/LwIP/src/core/tcp_out.c ****     LWIP_ASSERT("tcp_write: extension of reference requires reference",
 705:Middlewares/Third_Party/LwIP/src/core/tcp_out.c ****       last_unsent != NULL && last_unsent->p != NULL);
ARM GAS  /tmp/ccG0FHgO.s 			page 29


 706:Middlewares/Third_Party/LwIP/src/core/tcp_out.c ****     for (p = last_unsent->p; p->next != NULL; p = p->next) {
 707:Middlewares/Third_Party/LwIP/src/core/tcp_out.c ****       p->tot_len += extendlen;
 708:Middlewares/Third_Party/LwIP/src/core/tcp_out.c ****     }
 709:Middlewares/Third_Party/LwIP/src/core/tcp_out.c ****     p->tot_len += extendlen;
 710:Middlewares/Third_Party/LwIP/src/core/tcp_out.c ****     p->len += extendlen;
 711:Middlewares/Third_Party/LwIP/src/core/tcp_out.c ****     last_unsent->len += extendlen;
 712:Middlewares/Third_Party/LwIP/src/core/tcp_out.c ****   }
 713:Middlewares/Third_Party/LwIP/src/core/tcp_out.c **** 
 714:Middlewares/Third_Party/LwIP/src/core/tcp_out.c **** #if TCP_CHECKSUM_ON_COPY
 715:Middlewares/Third_Party/LwIP/src/core/tcp_out.c ****   if (concat_chksummed) {
 716:Middlewares/Third_Party/LwIP/src/core/tcp_out.c ****     LWIP_ASSERT("tcp_write: concat checksum needs concatenated data",
 717:Middlewares/Third_Party/LwIP/src/core/tcp_out.c ****         concat_p != NULL || extendlen > 0);
 718:Middlewares/Third_Party/LwIP/src/core/tcp_out.c ****     /*if concat checksumm swapped - swap it back */
 719:Middlewares/Third_Party/LwIP/src/core/tcp_out.c ****     if (concat_chksum_swapped) {
 720:Middlewares/Third_Party/LwIP/src/core/tcp_out.c ****       concat_chksum = SWAP_BYTES_IN_WORD(concat_chksum);
 721:Middlewares/Third_Party/LwIP/src/core/tcp_out.c ****     }
 722:Middlewares/Third_Party/LwIP/src/core/tcp_out.c ****     tcp_seg_add_chksum(concat_chksum, concat_chksummed, &last_unsent->chksum,
 723:Middlewares/Third_Party/LwIP/src/core/tcp_out.c ****       &last_unsent->chksum_swapped);
 724:Middlewares/Third_Party/LwIP/src/core/tcp_out.c ****     last_unsent->flags |= TF_SEG_DATA_CHECKSUMMED;
 725:Middlewares/Third_Party/LwIP/src/core/tcp_out.c ****   }
 726:Middlewares/Third_Party/LwIP/src/core/tcp_out.c **** #endif /* TCP_CHECKSUM_ON_COPY */
 727:Middlewares/Third_Party/LwIP/src/core/tcp_out.c **** 
 728:Middlewares/Third_Party/LwIP/src/core/tcp_out.c ****   /*
 729:Middlewares/Third_Party/LwIP/src/core/tcp_out.c ****    * Phase 3: Append queue to pcb->unsent. Queue may be NULL, but that
 730:Middlewares/Third_Party/LwIP/src/core/tcp_out.c ****    * is harmless
 731:Middlewares/Third_Party/LwIP/src/core/tcp_out.c ****    */
 732:Middlewares/Third_Party/LwIP/src/core/tcp_out.c ****   if (last_unsent == NULL) {
 733:Middlewares/Third_Party/LwIP/src/core/tcp_out.c ****     pcb->unsent = queue;
 734:Middlewares/Third_Party/LwIP/src/core/tcp_out.c ****   } else {
 735:Middlewares/Third_Party/LwIP/src/core/tcp_out.c ****     last_unsent->next = queue;
 736:Middlewares/Third_Party/LwIP/src/core/tcp_out.c ****   }
 737:Middlewares/Third_Party/LwIP/src/core/tcp_out.c **** 
 738:Middlewares/Third_Party/LwIP/src/core/tcp_out.c ****   /*
 739:Middlewares/Third_Party/LwIP/src/core/tcp_out.c ****    * Finally update the pcb state.
 740:Middlewares/Third_Party/LwIP/src/core/tcp_out.c ****    */
 741:Middlewares/Third_Party/LwIP/src/core/tcp_out.c ****   pcb->snd_lbb += len;
 742:Middlewares/Third_Party/LwIP/src/core/tcp_out.c ****   pcb->snd_buf -= len;
 743:Middlewares/Third_Party/LwIP/src/core/tcp_out.c ****   pcb->snd_queuelen = queuelen;
 744:Middlewares/Third_Party/LwIP/src/core/tcp_out.c **** 
 745:Middlewares/Third_Party/LwIP/src/core/tcp_out.c ****   LWIP_DEBUGF(TCP_QLEN_DEBUG, ("tcp_write: %"S16_F" (after enqueued)\n",
 746:Middlewares/Third_Party/LwIP/src/core/tcp_out.c ****     pcb->snd_queuelen));
 747:Middlewares/Third_Party/LwIP/src/core/tcp_out.c ****   if (pcb->snd_queuelen != 0) {
 748:Middlewares/Third_Party/LwIP/src/core/tcp_out.c ****     LWIP_ASSERT("tcp_write: valid queue length",
 749:Middlewares/Third_Party/LwIP/src/core/tcp_out.c ****                 pcb->unacked != NULL || pcb->unsent != NULL);
 750:Middlewares/Third_Party/LwIP/src/core/tcp_out.c ****   }
 751:Middlewares/Third_Party/LwIP/src/core/tcp_out.c **** 
 752:Middlewares/Third_Party/LwIP/src/core/tcp_out.c ****   /* Set the PSH flag in the last segment that we enqueued. */
 753:Middlewares/Third_Party/LwIP/src/core/tcp_out.c ****   if (seg != NULL && seg->tcphdr != NULL && ((apiflags & TCP_WRITE_FLAG_MORE)==0)) {
 754:Middlewares/Third_Party/LwIP/src/core/tcp_out.c ****     TCPH_SET_FLAG(seg->tcphdr, TCP_PSH);
 755:Middlewares/Third_Party/LwIP/src/core/tcp_out.c ****   }
 756:Middlewares/Third_Party/LwIP/src/core/tcp_out.c **** 
 757:Middlewares/Third_Party/LwIP/src/core/tcp_out.c ****   return ERR_OK;
 758:Middlewares/Third_Party/LwIP/src/core/tcp_out.c **** memerr:
 759:Middlewares/Third_Party/LwIP/src/core/tcp_out.c ****   pcb->flags |= TF_NAGLEMEMERR;
 760:Middlewares/Third_Party/LwIP/src/core/tcp_out.c ****   TCP_STATS_INC(tcp.memerr);
 761:Middlewares/Third_Party/LwIP/src/core/tcp_out.c **** 
 762:Middlewares/Third_Party/LwIP/src/core/tcp_out.c ****   if (concat_p != NULL) {
ARM GAS  /tmp/ccG0FHgO.s 			page 30


 763:Middlewares/Third_Party/LwIP/src/core/tcp_out.c ****     pbuf_free(concat_p);
 764:Middlewares/Third_Party/LwIP/src/core/tcp_out.c ****   }
 765:Middlewares/Third_Party/LwIP/src/core/tcp_out.c ****   if (queue != NULL) {
 766:Middlewares/Third_Party/LwIP/src/core/tcp_out.c ****     tcp_segs_free(queue);
 767:Middlewares/Third_Party/LwIP/src/core/tcp_out.c ****   }
 768:Middlewares/Third_Party/LwIP/src/core/tcp_out.c ****   if (pcb->snd_queuelen != 0) {
 769:Middlewares/Third_Party/LwIP/src/core/tcp_out.c ****     LWIP_ASSERT("tcp_write: valid queue length", pcb->unacked != NULL ||
 770:Middlewares/Third_Party/LwIP/src/core/tcp_out.c ****       pcb->unsent != NULL);
 771:Middlewares/Third_Party/LwIP/src/core/tcp_out.c ****   }
 772:Middlewares/Third_Party/LwIP/src/core/tcp_out.c ****   LWIP_DEBUGF(TCP_QLEN_DEBUG | LWIP_DBG_STATE, ("tcp_write: %"S16_F" (with mem err)\n", pcb->snd_qu
 773:Middlewares/Third_Party/LwIP/src/core/tcp_out.c ****   return ERR_MEM;
 774:Middlewares/Third_Party/LwIP/src/core/tcp_out.c **** }
 775:Middlewares/Third_Party/LwIP/src/core/tcp_out.c **** 
 776:Middlewares/Third_Party/LwIP/src/core/tcp_out.c **** /**
 777:Middlewares/Third_Party/LwIP/src/core/tcp_out.c ****  * Enqueue TCP options for transmission.
 778:Middlewares/Third_Party/LwIP/src/core/tcp_out.c ****  *
 779:Middlewares/Third_Party/LwIP/src/core/tcp_out.c ****  * Called by tcp_connect(), tcp_listen_input(), and tcp_send_ctrl().
 780:Middlewares/Third_Party/LwIP/src/core/tcp_out.c ****  *
 781:Middlewares/Third_Party/LwIP/src/core/tcp_out.c ****  * @param pcb Protocol control block for the TCP connection.
 782:Middlewares/Third_Party/LwIP/src/core/tcp_out.c ****  * @param flags TCP header flags to set in the outgoing segment.
 783:Middlewares/Third_Party/LwIP/src/core/tcp_out.c ****  */
 784:Middlewares/Third_Party/LwIP/src/core/tcp_out.c **** err_t
 785:Middlewares/Third_Party/LwIP/src/core/tcp_out.c **** tcp_enqueue_flags(struct tcp_pcb *pcb, u8_t flags)
 786:Middlewares/Third_Party/LwIP/src/core/tcp_out.c **** {
 787:Middlewares/Third_Party/LwIP/src/core/tcp_out.c ****   struct pbuf *p;
 788:Middlewares/Third_Party/LwIP/src/core/tcp_out.c ****   struct tcp_seg *seg;
 789:Middlewares/Third_Party/LwIP/src/core/tcp_out.c ****   u8_t optflags = 0;
 790:Middlewares/Third_Party/LwIP/src/core/tcp_out.c ****   u8_t optlen = 0;
 791:Middlewares/Third_Party/LwIP/src/core/tcp_out.c **** 
 792:Middlewares/Third_Party/LwIP/src/core/tcp_out.c ****   LWIP_DEBUGF(TCP_QLEN_DEBUG, ("tcp_enqueue_flags: queuelen: %"U16_F"\n", (u16_t)pcb->snd_queuelen)
 793:Middlewares/Third_Party/LwIP/src/core/tcp_out.c **** 
 794:Middlewares/Third_Party/LwIP/src/core/tcp_out.c ****   LWIP_ASSERT("tcp_enqueue_flags: need either TCP_SYN or TCP_FIN in flags (programmer violates API)
 795:Middlewares/Third_Party/LwIP/src/core/tcp_out.c ****               (flags & (TCP_SYN | TCP_FIN)) != 0);
 796:Middlewares/Third_Party/LwIP/src/core/tcp_out.c **** 
 797:Middlewares/Third_Party/LwIP/src/core/tcp_out.c ****   /* check for configured max queuelen and possible overflow (FIN flag should always come through!)
 798:Middlewares/Third_Party/LwIP/src/core/tcp_out.c ****   if (((pcb->snd_queuelen >= TCP_SND_QUEUELEN) || (pcb->snd_queuelen > TCP_SNDQUEUELEN_OVERFLOW)) &
 799:Middlewares/Third_Party/LwIP/src/core/tcp_out.c ****       ((flags & TCP_FIN) == 0)) {
 800:Middlewares/Third_Party/LwIP/src/core/tcp_out.c ****     LWIP_DEBUGF(TCP_OUTPUT_DEBUG | LWIP_DBG_LEVEL_SEVERE, ("tcp_enqueue_flags: too long queue %"U16
 801:Middlewares/Third_Party/LwIP/src/core/tcp_out.c ****                                        pcb->snd_queuelen, (u16_t)TCP_SND_QUEUELEN));
 802:Middlewares/Third_Party/LwIP/src/core/tcp_out.c ****     TCP_STATS_INC(tcp.memerr);
 803:Middlewares/Third_Party/LwIP/src/core/tcp_out.c ****     pcb->flags |= TF_NAGLEMEMERR;
 804:Middlewares/Third_Party/LwIP/src/core/tcp_out.c ****     return ERR_MEM;
 805:Middlewares/Third_Party/LwIP/src/core/tcp_out.c ****   }
 806:Middlewares/Third_Party/LwIP/src/core/tcp_out.c **** 
 807:Middlewares/Third_Party/LwIP/src/core/tcp_out.c ****   if (flags & TCP_SYN) {
 808:Middlewares/Third_Party/LwIP/src/core/tcp_out.c ****     optflags = TF_SEG_OPTS_MSS;
 809:Middlewares/Third_Party/LwIP/src/core/tcp_out.c **** #if LWIP_WND_SCALE
 810:Middlewares/Third_Party/LwIP/src/core/tcp_out.c ****     if ((pcb->state != SYN_RCVD) || (pcb->flags & TF_WND_SCALE)) {
 811:Middlewares/Third_Party/LwIP/src/core/tcp_out.c ****       /* In a <SYN,ACK> (sent in state SYN_RCVD), the window scale option may only
 812:Middlewares/Third_Party/LwIP/src/core/tcp_out.c ****          be sent if we received a window scale option from the remote host. */
 813:Middlewares/Third_Party/LwIP/src/core/tcp_out.c ****       optflags |= TF_SEG_OPTS_WND_SCALE;
 814:Middlewares/Third_Party/LwIP/src/core/tcp_out.c ****     }
 815:Middlewares/Third_Party/LwIP/src/core/tcp_out.c **** #endif /* LWIP_WND_SCALE */
 816:Middlewares/Third_Party/LwIP/src/core/tcp_out.c ****   }
 817:Middlewares/Third_Party/LwIP/src/core/tcp_out.c **** #if LWIP_TCP_TIMESTAMPS
 818:Middlewares/Third_Party/LwIP/src/core/tcp_out.c ****   if ((pcb->flags & TF_TIMESTAMP)) {
 819:Middlewares/Third_Party/LwIP/src/core/tcp_out.c ****     /* Make sure the timestamp option is only included in data segments if we
ARM GAS  /tmp/ccG0FHgO.s 			page 31


 820:Middlewares/Third_Party/LwIP/src/core/tcp_out.c ****        agreed about it with the remote host. */
 821:Middlewares/Third_Party/LwIP/src/core/tcp_out.c ****     optflags |= TF_SEG_OPTS_TS;
 822:Middlewares/Third_Party/LwIP/src/core/tcp_out.c ****   }
 823:Middlewares/Third_Party/LwIP/src/core/tcp_out.c **** #endif /* LWIP_TCP_TIMESTAMPS */
 824:Middlewares/Third_Party/LwIP/src/core/tcp_out.c ****   optlen = LWIP_TCP_OPT_LENGTH(optflags);
 825:Middlewares/Third_Party/LwIP/src/core/tcp_out.c **** 
 826:Middlewares/Third_Party/LwIP/src/core/tcp_out.c ****   /* Allocate pbuf with room for TCP header + options */
 827:Middlewares/Third_Party/LwIP/src/core/tcp_out.c ****   if ((p = pbuf_alloc(PBUF_TRANSPORT, optlen, PBUF_RAM)) == NULL) {
 828:Middlewares/Third_Party/LwIP/src/core/tcp_out.c ****     pcb->flags |= TF_NAGLEMEMERR;
 829:Middlewares/Third_Party/LwIP/src/core/tcp_out.c ****     TCP_STATS_INC(tcp.memerr);
 830:Middlewares/Third_Party/LwIP/src/core/tcp_out.c ****     return ERR_MEM;
 831:Middlewares/Third_Party/LwIP/src/core/tcp_out.c ****   }
 832:Middlewares/Third_Party/LwIP/src/core/tcp_out.c ****   LWIP_ASSERT("tcp_enqueue_flags: check that first pbuf can hold optlen",
 833:Middlewares/Third_Party/LwIP/src/core/tcp_out.c ****               (p->len >= optlen));
 834:Middlewares/Third_Party/LwIP/src/core/tcp_out.c **** 
 835:Middlewares/Third_Party/LwIP/src/core/tcp_out.c ****   /* Allocate memory for tcp_seg, and fill in fields. */
 836:Middlewares/Third_Party/LwIP/src/core/tcp_out.c ****   if ((seg = tcp_create_segment(pcb, p, flags, pcb->snd_lbb, optflags)) == NULL) {
 837:Middlewares/Third_Party/LwIP/src/core/tcp_out.c ****     pcb->flags |= TF_NAGLEMEMERR;
 838:Middlewares/Third_Party/LwIP/src/core/tcp_out.c ****     TCP_STATS_INC(tcp.memerr);
 839:Middlewares/Third_Party/LwIP/src/core/tcp_out.c ****     return ERR_MEM;
 840:Middlewares/Third_Party/LwIP/src/core/tcp_out.c ****   }
 841:Middlewares/Third_Party/LwIP/src/core/tcp_out.c ****   LWIP_ASSERT("seg->tcphdr not aligned", ((mem_ptr_t)seg->tcphdr % LWIP_MIN(MEM_ALIGNMENT, 4)) == 0
 842:Middlewares/Third_Party/LwIP/src/core/tcp_out.c ****   LWIP_ASSERT("tcp_enqueue_flags: invalid segment length", seg->len == 0);
 843:Middlewares/Third_Party/LwIP/src/core/tcp_out.c **** 
 844:Middlewares/Third_Party/LwIP/src/core/tcp_out.c ****   LWIP_DEBUGF(TCP_OUTPUT_DEBUG | LWIP_DBG_TRACE,
 845:Middlewares/Third_Party/LwIP/src/core/tcp_out.c ****               ("tcp_enqueue_flags: queueing %"U32_F":%"U32_F" (0x%"X16_F")\n",
 846:Middlewares/Third_Party/LwIP/src/core/tcp_out.c ****                lwip_ntohl(seg->tcphdr->seqno),
 847:Middlewares/Third_Party/LwIP/src/core/tcp_out.c ****                lwip_ntohl(seg->tcphdr->seqno) + TCP_TCPLEN(seg),
 848:Middlewares/Third_Party/LwIP/src/core/tcp_out.c ****                (u16_t)flags));
 849:Middlewares/Third_Party/LwIP/src/core/tcp_out.c **** 
 850:Middlewares/Third_Party/LwIP/src/core/tcp_out.c ****   /* Now append seg to pcb->unsent queue */
 851:Middlewares/Third_Party/LwIP/src/core/tcp_out.c ****   if (pcb->unsent == NULL) {
 852:Middlewares/Third_Party/LwIP/src/core/tcp_out.c ****     pcb->unsent = seg;
 853:Middlewares/Third_Party/LwIP/src/core/tcp_out.c ****   } else {
 854:Middlewares/Third_Party/LwIP/src/core/tcp_out.c ****     struct tcp_seg *useg;
 855:Middlewares/Third_Party/LwIP/src/core/tcp_out.c ****     for (useg = pcb->unsent; useg->next != NULL; useg = useg->next);
 856:Middlewares/Third_Party/LwIP/src/core/tcp_out.c ****     useg->next = seg;
 857:Middlewares/Third_Party/LwIP/src/core/tcp_out.c ****   }
 858:Middlewares/Third_Party/LwIP/src/core/tcp_out.c **** #if TCP_OVERSIZE
 859:Middlewares/Third_Party/LwIP/src/core/tcp_out.c ****   /* The new unsent tail has no space */
 860:Middlewares/Third_Party/LwIP/src/core/tcp_out.c ****   pcb->unsent_oversize = 0;
 861:Middlewares/Third_Party/LwIP/src/core/tcp_out.c **** #endif /* TCP_OVERSIZE */
 862:Middlewares/Third_Party/LwIP/src/core/tcp_out.c **** 
 863:Middlewares/Third_Party/LwIP/src/core/tcp_out.c ****   /* SYN and FIN bump the sequence number */
 864:Middlewares/Third_Party/LwIP/src/core/tcp_out.c ****   if ((flags & TCP_SYN) || (flags & TCP_FIN)) {
 865:Middlewares/Third_Party/LwIP/src/core/tcp_out.c ****     pcb->snd_lbb++;
 866:Middlewares/Third_Party/LwIP/src/core/tcp_out.c ****     /* optlen does not influence snd_buf */
 867:Middlewares/Third_Party/LwIP/src/core/tcp_out.c ****   }
 868:Middlewares/Third_Party/LwIP/src/core/tcp_out.c ****   if (flags & TCP_FIN) {
 869:Middlewares/Third_Party/LwIP/src/core/tcp_out.c ****     pcb->flags |= TF_FIN;
 870:Middlewares/Third_Party/LwIP/src/core/tcp_out.c ****   }
 871:Middlewares/Third_Party/LwIP/src/core/tcp_out.c **** 
 872:Middlewares/Third_Party/LwIP/src/core/tcp_out.c ****   /* update number of segments on the queues */
 873:Middlewares/Third_Party/LwIP/src/core/tcp_out.c ****   pcb->snd_queuelen += pbuf_clen(seg->p);
 874:Middlewares/Third_Party/LwIP/src/core/tcp_out.c ****   LWIP_DEBUGF(TCP_QLEN_DEBUG, ("tcp_enqueue_flags: %"S16_F" (after enqueued)\n", pcb->snd_queuelen)
 875:Middlewares/Third_Party/LwIP/src/core/tcp_out.c ****   if (pcb->snd_queuelen != 0) {
 876:Middlewares/Third_Party/LwIP/src/core/tcp_out.c ****     LWIP_ASSERT("tcp_enqueue_flags: invalid queue length",
ARM GAS  /tmp/ccG0FHgO.s 			page 32


 877:Middlewares/Third_Party/LwIP/src/core/tcp_out.c ****       pcb->unacked != NULL || pcb->unsent != NULL);
 878:Middlewares/Third_Party/LwIP/src/core/tcp_out.c ****   }
 879:Middlewares/Third_Party/LwIP/src/core/tcp_out.c **** 
 880:Middlewares/Third_Party/LwIP/src/core/tcp_out.c ****   return ERR_OK;
 881:Middlewares/Third_Party/LwIP/src/core/tcp_out.c **** }
 882:Middlewares/Third_Party/LwIP/src/core/tcp_out.c **** 
 883:Middlewares/Third_Party/LwIP/src/core/tcp_out.c **** #if LWIP_TCP_TIMESTAMPS
 884:Middlewares/Third_Party/LwIP/src/core/tcp_out.c **** /* Build a timestamp option (12 bytes long) at the specified options pointer)
 885:Middlewares/Third_Party/LwIP/src/core/tcp_out.c ****  *
 886:Middlewares/Third_Party/LwIP/src/core/tcp_out.c ****  * @param pcb tcp_pcb
 887:Middlewares/Third_Party/LwIP/src/core/tcp_out.c ****  * @param opts option pointer where to store the timestamp option
 888:Middlewares/Third_Party/LwIP/src/core/tcp_out.c ****  */
 889:Middlewares/Third_Party/LwIP/src/core/tcp_out.c **** static void
 890:Middlewares/Third_Party/LwIP/src/core/tcp_out.c **** tcp_build_timestamp_option(struct tcp_pcb *pcb, u32_t *opts)
 891:Middlewares/Third_Party/LwIP/src/core/tcp_out.c **** {
 892:Middlewares/Third_Party/LwIP/src/core/tcp_out.c ****   /* Pad with two NOP options to make everything nicely aligned */
 893:Middlewares/Third_Party/LwIP/src/core/tcp_out.c ****   opts[0] = PP_HTONL(0x0101080A);
 894:Middlewares/Third_Party/LwIP/src/core/tcp_out.c ****   opts[1] = lwip_htonl(sys_now());
 895:Middlewares/Third_Party/LwIP/src/core/tcp_out.c ****   opts[2] = lwip_htonl(pcb->ts_recent);
 896:Middlewares/Third_Party/LwIP/src/core/tcp_out.c **** }
 897:Middlewares/Third_Party/LwIP/src/core/tcp_out.c **** #endif
 898:Middlewares/Third_Party/LwIP/src/core/tcp_out.c **** 
 899:Middlewares/Third_Party/LwIP/src/core/tcp_out.c **** #if LWIP_WND_SCALE
 900:Middlewares/Third_Party/LwIP/src/core/tcp_out.c **** /** Build a window scale option (3 bytes long) at the specified options pointer)
 901:Middlewares/Third_Party/LwIP/src/core/tcp_out.c ****  *
 902:Middlewares/Third_Party/LwIP/src/core/tcp_out.c ****  * @param opts option pointer where to store the window scale option
 903:Middlewares/Third_Party/LwIP/src/core/tcp_out.c ****  */
 904:Middlewares/Third_Party/LwIP/src/core/tcp_out.c **** static void
 905:Middlewares/Third_Party/LwIP/src/core/tcp_out.c **** tcp_build_wnd_scale_option(u32_t *opts)
 906:Middlewares/Third_Party/LwIP/src/core/tcp_out.c **** {
 907:Middlewares/Third_Party/LwIP/src/core/tcp_out.c ****   /* Pad with one NOP option to make everything nicely aligned */
 908:Middlewares/Third_Party/LwIP/src/core/tcp_out.c ****   opts[0] = PP_HTONL(0x01030300 | TCP_RCV_SCALE);
 909:Middlewares/Third_Party/LwIP/src/core/tcp_out.c **** }
 910:Middlewares/Third_Party/LwIP/src/core/tcp_out.c **** #endif
 911:Middlewares/Third_Party/LwIP/src/core/tcp_out.c **** 
 912:Middlewares/Third_Party/LwIP/src/core/tcp_out.c **** /**
 913:Middlewares/Third_Party/LwIP/src/core/tcp_out.c ****  * Send an ACK without data.
 914:Middlewares/Third_Party/LwIP/src/core/tcp_out.c ****  *
 915:Middlewares/Third_Party/LwIP/src/core/tcp_out.c ****  * @param pcb Protocol control block for the TCP connection to send the ACK
 916:Middlewares/Third_Party/LwIP/src/core/tcp_out.c ****  */
 917:Middlewares/Third_Party/LwIP/src/core/tcp_out.c **** err_t
 918:Middlewares/Third_Party/LwIP/src/core/tcp_out.c **** tcp_send_empty_ack(struct tcp_pcb *pcb)
 919:Middlewares/Third_Party/LwIP/src/core/tcp_out.c **** {
 920:Middlewares/Third_Party/LwIP/src/core/tcp_out.c ****   err_t err;
 921:Middlewares/Third_Party/LwIP/src/core/tcp_out.c ****   struct pbuf *p;
 922:Middlewares/Third_Party/LwIP/src/core/tcp_out.c ****   u8_t optlen = 0;
 923:Middlewares/Third_Party/LwIP/src/core/tcp_out.c ****   struct netif *netif;
 924:Middlewares/Third_Party/LwIP/src/core/tcp_out.c **** #if LWIP_TCP_TIMESTAMPS || CHECKSUM_GEN_TCP
 925:Middlewares/Third_Party/LwIP/src/core/tcp_out.c ****   struct tcp_hdr *tcphdr;
 926:Middlewares/Third_Party/LwIP/src/core/tcp_out.c **** #endif /* LWIP_TCP_TIMESTAMPS || CHECKSUM_GEN_TCP */
 927:Middlewares/Third_Party/LwIP/src/core/tcp_out.c **** 
 928:Middlewares/Third_Party/LwIP/src/core/tcp_out.c **** #if LWIP_TCP_TIMESTAMPS
 929:Middlewares/Third_Party/LwIP/src/core/tcp_out.c ****   if (pcb->flags & TF_TIMESTAMP) {
 930:Middlewares/Third_Party/LwIP/src/core/tcp_out.c ****     optlen = LWIP_TCP_OPT_LENGTH(TF_SEG_OPTS_TS);
 931:Middlewares/Third_Party/LwIP/src/core/tcp_out.c ****   }
 932:Middlewares/Third_Party/LwIP/src/core/tcp_out.c **** #endif
 933:Middlewares/Third_Party/LwIP/src/core/tcp_out.c **** 
ARM GAS  /tmp/ccG0FHgO.s 			page 33


 934:Middlewares/Third_Party/LwIP/src/core/tcp_out.c ****   p = tcp_output_alloc_header(pcb, optlen, 0, lwip_htonl(pcb->snd_nxt));
 935:Middlewares/Third_Party/LwIP/src/core/tcp_out.c ****   if (p == NULL) {
 936:Middlewares/Third_Party/LwIP/src/core/tcp_out.c ****     /* let tcp_fasttmr retry sending this ACK */
 937:Middlewares/Third_Party/LwIP/src/core/tcp_out.c ****     pcb->flags |= (TF_ACK_DELAY | TF_ACK_NOW);
 938:Middlewares/Third_Party/LwIP/src/core/tcp_out.c ****     LWIP_DEBUGF(TCP_OUTPUT_DEBUG, ("tcp_output: (ACK) could not allocate pbuf\n"));
 939:Middlewares/Third_Party/LwIP/src/core/tcp_out.c ****     return ERR_BUF;
 940:Middlewares/Third_Party/LwIP/src/core/tcp_out.c ****   }
 941:Middlewares/Third_Party/LwIP/src/core/tcp_out.c **** #if LWIP_TCP_TIMESTAMPS || CHECKSUM_GEN_TCP
 942:Middlewares/Third_Party/LwIP/src/core/tcp_out.c ****   tcphdr = (struct tcp_hdr *)p->payload;
 943:Middlewares/Third_Party/LwIP/src/core/tcp_out.c **** #endif /* LWIP_TCP_TIMESTAMPS || CHECKSUM_GEN_TCP */
 944:Middlewares/Third_Party/LwIP/src/core/tcp_out.c ****   LWIP_DEBUGF(TCP_OUTPUT_DEBUG,
 945:Middlewares/Third_Party/LwIP/src/core/tcp_out.c ****               ("tcp_output: sending ACK for %"U32_F"\n", pcb->rcv_nxt));
 946:Middlewares/Third_Party/LwIP/src/core/tcp_out.c **** 
 947:Middlewares/Third_Party/LwIP/src/core/tcp_out.c ****   /* NB. MSS and window scale options are only sent on SYNs, so ignore them here */
 948:Middlewares/Third_Party/LwIP/src/core/tcp_out.c **** #if LWIP_TCP_TIMESTAMPS
 949:Middlewares/Third_Party/LwIP/src/core/tcp_out.c ****   pcb->ts_lastacksent = pcb->rcv_nxt;
 950:Middlewares/Third_Party/LwIP/src/core/tcp_out.c **** 
 951:Middlewares/Third_Party/LwIP/src/core/tcp_out.c ****   if (pcb->flags & TF_TIMESTAMP) {
 952:Middlewares/Third_Party/LwIP/src/core/tcp_out.c ****     tcp_build_timestamp_option(pcb, (u32_t *)(tcphdr + 1));
 953:Middlewares/Third_Party/LwIP/src/core/tcp_out.c ****   }
 954:Middlewares/Third_Party/LwIP/src/core/tcp_out.c **** #endif
 955:Middlewares/Third_Party/LwIP/src/core/tcp_out.c **** 
 956:Middlewares/Third_Party/LwIP/src/core/tcp_out.c ****   netif = ip_route(&pcb->local_ip, &pcb->remote_ip);
 957:Middlewares/Third_Party/LwIP/src/core/tcp_out.c ****   if (netif == NULL) {
 958:Middlewares/Third_Party/LwIP/src/core/tcp_out.c ****     err = ERR_RTE;
 959:Middlewares/Third_Party/LwIP/src/core/tcp_out.c ****   } else {
 960:Middlewares/Third_Party/LwIP/src/core/tcp_out.c **** #if CHECKSUM_GEN_TCP
 961:Middlewares/Third_Party/LwIP/src/core/tcp_out.c ****     IF__NETIF_CHECKSUM_ENABLED(netif, NETIF_CHECKSUM_GEN_TCP) {
 962:Middlewares/Third_Party/LwIP/src/core/tcp_out.c ****       tcphdr->chksum = ip_chksum_pseudo(p, IP_PROTO_TCP, p->tot_len,
 963:Middlewares/Third_Party/LwIP/src/core/tcp_out.c ****         &pcb->local_ip, &pcb->remote_ip);
 964:Middlewares/Third_Party/LwIP/src/core/tcp_out.c ****     }
 965:Middlewares/Third_Party/LwIP/src/core/tcp_out.c **** #endif
 966:Middlewares/Third_Party/LwIP/src/core/tcp_out.c ****     NETIF_SET_HWADDRHINT(netif, &(pcb->addr_hint));
 967:Middlewares/Third_Party/LwIP/src/core/tcp_out.c ****     err = ip_output_if(p, &pcb->local_ip, &pcb->remote_ip,
 968:Middlewares/Third_Party/LwIP/src/core/tcp_out.c ****       pcb->ttl, pcb->tos, IP_PROTO_TCP, netif);
 969:Middlewares/Third_Party/LwIP/src/core/tcp_out.c ****     NETIF_SET_HWADDRHINT(netif, NULL);
 970:Middlewares/Third_Party/LwIP/src/core/tcp_out.c ****   }
 971:Middlewares/Third_Party/LwIP/src/core/tcp_out.c ****   pbuf_free(p);
 972:Middlewares/Third_Party/LwIP/src/core/tcp_out.c **** 
 973:Middlewares/Third_Party/LwIP/src/core/tcp_out.c ****   if (err != ERR_OK) {
 974:Middlewares/Third_Party/LwIP/src/core/tcp_out.c ****     /* let tcp_fasttmr retry sending this ACK */
 975:Middlewares/Third_Party/LwIP/src/core/tcp_out.c ****     pcb->flags |= (TF_ACK_DELAY | TF_ACK_NOW);
 976:Middlewares/Third_Party/LwIP/src/core/tcp_out.c ****   } else {
 977:Middlewares/Third_Party/LwIP/src/core/tcp_out.c ****     /* remove ACK flags from the PCB, as we sent an empty ACK now */
 978:Middlewares/Third_Party/LwIP/src/core/tcp_out.c ****     pcb->flags &= ~(TF_ACK_DELAY | TF_ACK_NOW);
 979:Middlewares/Third_Party/LwIP/src/core/tcp_out.c ****   }
 980:Middlewares/Third_Party/LwIP/src/core/tcp_out.c **** 
 981:Middlewares/Third_Party/LwIP/src/core/tcp_out.c ****   return err;
 982:Middlewares/Third_Party/LwIP/src/core/tcp_out.c **** }
 983:Middlewares/Third_Party/LwIP/src/core/tcp_out.c **** 
 984:Middlewares/Third_Party/LwIP/src/core/tcp_out.c **** /**
 985:Middlewares/Third_Party/LwIP/src/core/tcp_out.c ****  * @ingroup tcp_raw
 986:Middlewares/Third_Party/LwIP/src/core/tcp_out.c ****  * Find out what we can send and send it
 987:Middlewares/Third_Party/LwIP/src/core/tcp_out.c ****  *
 988:Middlewares/Third_Party/LwIP/src/core/tcp_out.c ****  * @param pcb Protocol control block for the TCP connection to send data
 989:Middlewares/Third_Party/LwIP/src/core/tcp_out.c ****  * @return ERR_OK if data has been sent or nothing to send
 990:Middlewares/Third_Party/LwIP/src/core/tcp_out.c ****  *         another err_t on error
ARM GAS  /tmp/ccG0FHgO.s 			page 34


 991:Middlewares/Third_Party/LwIP/src/core/tcp_out.c ****  */
 992:Middlewares/Third_Party/LwIP/src/core/tcp_out.c **** err_t
 993:Middlewares/Third_Party/LwIP/src/core/tcp_out.c **** tcp_output(struct tcp_pcb *pcb)
 994:Middlewares/Third_Party/LwIP/src/core/tcp_out.c **** {
 995:Middlewares/Third_Party/LwIP/src/core/tcp_out.c ****   struct tcp_seg *seg, *useg;
 996:Middlewares/Third_Party/LwIP/src/core/tcp_out.c ****   u32_t wnd, snd_nxt;
 997:Middlewares/Third_Party/LwIP/src/core/tcp_out.c ****   err_t err;
 998:Middlewares/Third_Party/LwIP/src/core/tcp_out.c ****   struct netif *netif;
 999:Middlewares/Third_Party/LwIP/src/core/tcp_out.c **** #if TCP_CWND_DEBUG
1000:Middlewares/Third_Party/LwIP/src/core/tcp_out.c ****   s16_t i = 0;
1001:Middlewares/Third_Party/LwIP/src/core/tcp_out.c **** #endif /* TCP_CWND_DEBUG */
1002:Middlewares/Third_Party/LwIP/src/core/tcp_out.c **** 
1003:Middlewares/Third_Party/LwIP/src/core/tcp_out.c ****   /* pcb->state LISTEN not allowed here */
1004:Middlewares/Third_Party/LwIP/src/core/tcp_out.c ****   LWIP_ASSERT("don't call tcp_output for listen-pcbs",
1005:Middlewares/Third_Party/LwIP/src/core/tcp_out.c ****     pcb->state != LISTEN);
1006:Middlewares/Third_Party/LwIP/src/core/tcp_out.c **** 
1007:Middlewares/Third_Party/LwIP/src/core/tcp_out.c ****   /* First, check if we are invoked by the TCP input processing
1008:Middlewares/Third_Party/LwIP/src/core/tcp_out.c ****      code. If so, we do not output anything. Instead, we rely on the
1009:Middlewares/Third_Party/LwIP/src/core/tcp_out.c ****      input processing code to call us when input processing is done
1010:Middlewares/Third_Party/LwIP/src/core/tcp_out.c ****      with. */
1011:Middlewares/Third_Party/LwIP/src/core/tcp_out.c ****   if (tcp_input_pcb == pcb) {
1012:Middlewares/Third_Party/LwIP/src/core/tcp_out.c ****     return ERR_OK;
1013:Middlewares/Third_Party/LwIP/src/core/tcp_out.c ****   }
1014:Middlewares/Third_Party/LwIP/src/core/tcp_out.c **** 
1015:Middlewares/Third_Party/LwIP/src/core/tcp_out.c ****   wnd = LWIP_MIN(pcb->snd_wnd, pcb->cwnd);
1016:Middlewares/Third_Party/LwIP/src/core/tcp_out.c **** 
1017:Middlewares/Third_Party/LwIP/src/core/tcp_out.c ****   seg = pcb->unsent;
1018:Middlewares/Third_Party/LwIP/src/core/tcp_out.c **** 
1019:Middlewares/Third_Party/LwIP/src/core/tcp_out.c ****   /* If the TF_ACK_NOW flag is set and no data will be sent (either
1020:Middlewares/Third_Party/LwIP/src/core/tcp_out.c ****    * because the ->unsent queue is empty or because the window does
1021:Middlewares/Third_Party/LwIP/src/core/tcp_out.c ****    * not allow it), construct an empty ACK segment and send it.
1022:Middlewares/Third_Party/LwIP/src/core/tcp_out.c ****    *
1023:Middlewares/Third_Party/LwIP/src/core/tcp_out.c ****    * If data is to be sent, we will just piggyback the ACK (see below).
1024:Middlewares/Third_Party/LwIP/src/core/tcp_out.c ****    */
1025:Middlewares/Third_Party/LwIP/src/core/tcp_out.c ****   if (pcb->flags & TF_ACK_NOW &&
1026:Middlewares/Third_Party/LwIP/src/core/tcp_out.c ****      (seg == NULL ||
1027:Middlewares/Third_Party/LwIP/src/core/tcp_out.c ****       lwip_ntohl(seg->tcphdr->seqno) - pcb->lastack + seg->len > wnd)) {
1028:Middlewares/Third_Party/LwIP/src/core/tcp_out.c ****      return tcp_send_empty_ack(pcb);
1029:Middlewares/Third_Party/LwIP/src/core/tcp_out.c ****   }
1030:Middlewares/Third_Party/LwIP/src/core/tcp_out.c **** 
1031:Middlewares/Third_Party/LwIP/src/core/tcp_out.c ****   /* useg should point to last segment on unacked queue */
1032:Middlewares/Third_Party/LwIP/src/core/tcp_out.c ****   useg = pcb->unacked;
1033:Middlewares/Third_Party/LwIP/src/core/tcp_out.c ****   if (useg != NULL) {
1034:Middlewares/Third_Party/LwIP/src/core/tcp_out.c ****     for (; useg->next != NULL; useg = useg->next);
1035:Middlewares/Third_Party/LwIP/src/core/tcp_out.c ****   }
1036:Middlewares/Third_Party/LwIP/src/core/tcp_out.c **** 
1037:Middlewares/Third_Party/LwIP/src/core/tcp_out.c ****   netif = ip_route(&pcb->local_ip, &pcb->remote_ip);
1038:Middlewares/Third_Party/LwIP/src/core/tcp_out.c ****   if (netif == NULL) {
1039:Middlewares/Third_Party/LwIP/src/core/tcp_out.c ****     return ERR_RTE;
1040:Middlewares/Third_Party/LwIP/src/core/tcp_out.c ****   }
1041:Middlewares/Third_Party/LwIP/src/core/tcp_out.c **** 
1042:Middlewares/Third_Party/LwIP/src/core/tcp_out.c ****   /* If we don't have a local IP address, we get one from netif */
1043:Middlewares/Third_Party/LwIP/src/core/tcp_out.c ****   if (ip_addr_isany(&pcb->local_ip)) {
1044:Middlewares/Third_Party/LwIP/src/core/tcp_out.c ****     const ip_addr_t *local_ip = ip_netif_get_local_ip(netif, &pcb->remote_ip);
1045:Middlewares/Third_Party/LwIP/src/core/tcp_out.c ****     if (local_ip == NULL) {
1046:Middlewares/Third_Party/LwIP/src/core/tcp_out.c ****       return ERR_RTE;
1047:Middlewares/Third_Party/LwIP/src/core/tcp_out.c ****     }
ARM GAS  /tmp/ccG0FHgO.s 			page 35


1048:Middlewares/Third_Party/LwIP/src/core/tcp_out.c ****     ip_addr_copy(pcb->local_ip, *local_ip);
1049:Middlewares/Third_Party/LwIP/src/core/tcp_out.c ****   }
1050:Middlewares/Third_Party/LwIP/src/core/tcp_out.c **** 
1051:Middlewares/Third_Party/LwIP/src/core/tcp_out.c **** #if TCP_OUTPUT_DEBUG
1052:Middlewares/Third_Party/LwIP/src/core/tcp_out.c ****   if (seg == NULL) {
1053:Middlewares/Third_Party/LwIP/src/core/tcp_out.c ****     LWIP_DEBUGF(TCP_OUTPUT_DEBUG, ("tcp_output: nothing to send (%p)\n",
1054:Middlewares/Third_Party/LwIP/src/core/tcp_out.c ****                                    (void*)pcb->unsent));
1055:Middlewares/Third_Party/LwIP/src/core/tcp_out.c ****   }
1056:Middlewares/Third_Party/LwIP/src/core/tcp_out.c **** #endif /* TCP_OUTPUT_DEBUG */
1057:Middlewares/Third_Party/LwIP/src/core/tcp_out.c **** #if TCP_CWND_DEBUG
1058:Middlewares/Third_Party/LwIP/src/core/tcp_out.c ****   if (seg == NULL) {
1059:Middlewares/Third_Party/LwIP/src/core/tcp_out.c ****     LWIP_DEBUGF(TCP_CWND_DEBUG, ("tcp_output: snd_wnd %"TCPWNDSIZE_F
1060:Middlewares/Third_Party/LwIP/src/core/tcp_out.c ****                                  ", cwnd %"TCPWNDSIZE_F", wnd %"U32_F
1061:Middlewares/Third_Party/LwIP/src/core/tcp_out.c ****                                  ", seg == NULL, ack %"U32_F"\n",
1062:Middlewares/Third_Party/LwIP/src/core/tcp_out.c ****                                  pcb->snd_wnd, pcb->cwnd, wnd, pcb->lastack));
1063:Middlewares/Third_Party/LwIP/src/core/tcp_out.c ****   } else {
1064:Middlewares/Third_Party/LwIP/src/core/tcp_out.c ****     LWIP_DEBUGF(TCP_CWND_DEBUG,
1065:Middlewares/Third_Party/LwIP/src/core/tcp_out.c ****                 ("tcp_output: snd_wnd %"TCPWNDSIZE_F", cwnd %"TCPWNDSIZE_F", wnd %"U32_F
1066:Middlewares/Third_Party/LwIP/src/core/tcp_out.c ****                  ", effwnd %"U32_F", seq %"U32_F", ack %"U32_F"\n",
1067:Middlewares/Third_Party/LwIP/src/core/tcp_out.c ****                  pcb->snd_wnd, pcb->cwnd, wnd,
1068:Middlewares/Third_Party/LwIP/src/core/tcp_out.c ****                  lwip_ntohl(seg->tcphdr->seqno) - pcb->lastack + seg->len,
1069:Middlewares/Third_Party/LwIP/src/core/tcp_out.c ****                  lwip_ntohl(seg->tcphdr->seqno), pcb->lastack));
1070:Middlewares/Third_Party/LwIP/src/core/tcp_out.c ****   }
1071:Middlewares/Third_Party/LwIP/src/core/tcp_out.c **** #endif /* TCP_CWND_DEBUG */
1072:Middlewares/Third_Party/LwIP/src/core/tcp_out.c ****   /* Check if we need to start the persistent timer when the next unsent segment
1073:Middlewares/Third_Party/LwIP/src/core/tcp_out.c ****    * does not fit within the remaining send window and RTO timer is not running (we
1074:Middlewares/Third_Party/LwIP/src/core/tcp_out.c ****    * have no in-flight data). A traditional approach would fill the remaining window
1075:Middlewares/Third_Party/LwIP/src/core/tcp_out.c ****    * with part of the unsent segment (which will engage zero-window probing upon
1076:Middlewares/Third_Party/LwIP/src/core/tcp_out.c ****    * reception of the zero window update from the receiver). This ensures the
1077:Middlewares/Third_Party/LwIP/src/core/tcp_out.c ****    * subsequent window update is reliably received. With the goal of being lightweight,
1078:Middlewares/Third_Party/LwIP/src/core/tcp_out.c ****    * we avoid splitting the unsent segment and treat the window as already zero.
1079:Middlewares/Third_Party/LwIP/src/core/tcp_out.c ****    */
1080:Middlewares/Third_Party/LwIP/src/core/tcp_out.c ****   if (seg != NULL &&
1081:Middlewares/Third_Party/LwIP/src/core/tcp_out.c ****       lwip_ntohl(seg->tcphdr->seqno) - pcb->lastack + seg->len > wnd &&
1082:Middlewares/Third_Party/LwIP/src/core/tcp_out.c ****       wnd > 0 && wnd == pcb->snd_wnd && pcb->unacked == NULL) {
1083:Middlewares/Third_Party/LwIP/src/core/tcp_out.c ****     /* Start the persist timer */
1084:Middlewares/Third_Party/LwIP/src/core/tcp_out.c ****     if (pcb->persist_backoff == 0) {
1085:Middlewares/Third_Party/LwIP/src/core/tcp_out.c ****       pcb->persist_cnt = 0;
1086:Middlewares/Third_Party/LwIP/src/core/tcp_out.c ****       pcb->persist_backoff = 1;
1087:Middlewares/Third_Party/LwIP/src/core/tcp_out.c ****     }
1088:Middlewares/Third_Party/LwIP/src/core/tcp_out.c ****     goto output_done;
1089:Middlewares/Third_Party/LwIP/src/core/tcp_out.c ****   }
1090:Middlewares/Third_Party/LwIP/src/core/tcp_out.c ****   /* data available and window allows it to be sent? */
1091:Middlewares/Third_Party/LwIP/src/core/tcp_out.c ****   while (seg != NULL &&
1092:Middlewares/Third_Party/LwIP/src/core/tcp_out.c ****          lwip_ntohl(seg->tcphdr->seqno) - pcb->lastack + seg->len <= wnd) {
1093:Middlewares/Third_Party/LwIP/src/core/tcp_out.c ****     LWIP_ASSERT("RST not expected here!",
1094:Middlewares/Third_Party/LwIP/src/core/tcp_out.c ****                 (TCPH_FLAGS(seg->tcphdr) & TCP_RST) == 0);
1095:Middlewares/Third_Party/LwIP/src/core/tcp_out.c ****     /* Stop sending if the nagle algorithm would prevent it
1096:Middlewares/Third_Party/LwIP/src/core/tcp_out.c ****      * Don't stop:
1097:Middlewares/Third_Party/LwIP/src/core/tcp_out.c ****      * - if tcp_write had a memory error before (prevent delayed ACK timeout) or
1098:Middlewares/Third_Party/LwIP/src/core/tcp_out.c ****      * - if FIN was already enqueued for this PCB (SYN is always alone in a segment -
1099:Middlewares/Third_Party/LwIP/src/core/tcp_out.c ****      *   either seg->next != NULL or pcb->unacked == NULL;
1100:Middlewares/Third_Party/LwIP/src/core/tcp_out.c ****      *   RST is no sent using tcp_write/tcp_output.
1101:Middlewares/Third_Party/LwIP/src/core/tcp_out.c ****      */
1102:Middlewares/Third_Party/LwIP/src/core/tcp_out.c ****     if ((tcp_do_output_nagle(pcb) == 0) &&
1103:Middlewares/Third_Party/LwIP/src/core/tcp_out.c ****       ((pcb->flags & (TF_NAGLEMEMERR | TF_FIN)) == 0)) {
1104:Middlewares/Third_Party/LwIP/src/core/tcp_out.c ****       break;
ARM GAS  /tmp/ccG0FHgO.s 			page 36


1105:Middlewares/Third_Party/LwIP/src/core/tcp_out.c ****     }
1106:Middlewares/Third_Party/LwIP/src/core/tcp_out.c **** #if TCP_CWND_DEBUG
1107:Middlewares/Third_Party/LwIP/src/core/tcp_out.c ****     LWIP_DEBUGF(TCP_CWND_DEBUG, ("tcp_output: snd_wnd %"TCPWNDSIZE_F", cwnd %"TCPWNDSIZE_F", wnd %"
1108:Middlewares/Third_Party/LwIP/src/core/tcp_out.c ****                             pcb->snd_wnd, pcb->cwnd, wnd,
1109:Middlewares/Third_Party/LwIP/src/core/tcp_out.c ****                             lwip_ntohl(seg->tcphdr->seqno) + seg->len -
1110:Middlewares/Third_Party/LwIP/src/core/tcp_out.c ****                             pcb->lastack,
1111:Middlewares/Third_Party/LwIP/src/core/tcp_out.c ****                             lwip_ntohl(seg->tcphdr->seqno), pcb->lastack, i));
1112:Middlewares/Third_Party/LwIP/src/core/tcp_out.c ****     ++i;
1113:Middlewares/Third_Party/LwIP/src/core/tcp_out.c **** #endif /* TCP_CWND_DEBUG */
1114:Middlewares/Third_Party/LwIP/src/core/tcp_out.c **** 
1115:Middlewares/Third_Party/LwIP/src/core/tcp_out.c ****     if (pcb->state != SYN_SENT) {
1116:Middlewares/Third_Party/LwIP/src/core/tcp_out.c ****       TCPH_SET_FLAG(seg->tcphdr, TCP_ACK);
1117:Middlewares/Third_Party/LwIP/src/core/tcp_out.c ****     }
1118:Middlewares/Third_Party/LwIP/src/core/tcp_out.c **** 
1119:Middlewares/Third_Party/LwIP/src/core/tcp_out.c **** #if TCP_OVERSIZE_DBGCHECK
1120:Middlewares/Third_Party/LwIP/src/core/tcp_out.c ****     seg->oversize_left = 0;
1121:Middlewares/Third_Party/LwIP/src/core/tcp_out.c **** #endif /* TCP_OVERSIZE_DBGCHECK */
1122:Middlewares/Third_Party/LwIP/src/core/tcp_out.c ****     err = tcp_output_segment(seg, pcb, netif);
1123:Middlewares/Third_Party/LwIP/src/core/tcp_out.c ****     if (err != ERR_OK) {
1124:Middlewares/Third_Party/LwIP/src/core/tcp_out.c ****       /* segment could not be sent, for whatever reason */
1125:Middlewares/Third_Party/LwIP/src/core/tcp_out.c ****       pcb->flags |= TF_NAGLEMEMERR;
1126:Middlewares/Third_Party/LwIP/src/core/tcp_out.c ****       return err;
1127:Middlewares/Third_Party/LwIP/src/core/tcp_out.c ****     }
1128:Middlewares/Third_Party/LwIP/src/core/tcp_out.c ****     pcb->unsent = seg->next;
1129:Middlewares/Third_Party/LwIP/src/core/tcp_out.c ****     if (pcb->state != SYN_SENT) {
1130:Middlewares/Third_Party/LwIP/src/core/tcp_out.c ****       pcb->flags &= ~(TF_ACK_DELAY | TF_ACK_NOW);
1131:Middlewares/Third_Party/LwIP/src/core/tcp_out.c ****     }
1132:Middlewares/Third_Party/LwIP/src/core/tcp_out.c ****     snd_nxt = lwip_ntohl(seg->tcphdr->seqno) + TCP_TCPLEN(seg);
1133:Middlewares/Third_Party/LwIP/src/core/tcp_out.c ****     if (TCP_SEQ_LT(pcb->snd_nxt, snd_nxt)) {
1134:Middlewares/Third_Party/LwIP/src/core/tcp_out.c ****       pcb->snd_nxt = snd_nxt;
1135:Middlewares/Third_Party/LwIP/src/core/tcp_out.c ****     }
1136:Middlewares/Third_Party/LwIP/src/core/tcp_out.c ****     /* put segment on unacknowledged list if length > 0 */
1137:Middlewares/Third_Party/LwIP/src/core/tcp_out.c ****     if (TCP_TCPLEN(seg) > 0) {
1138:Middlewares/Third_Party/LwIP/src/core/tcp_out.c ****       seg->next = NULL;
1139:Middlewares/Third_Party/LwIP/src/core/tcp_out.c ****       /* unacked list is empty? */
1140:Middlewares/Third_Party/LwIP/src/core/tcp_out.c ****       if (pcb->unacked == NULL) {
1141:Middlewares/Third_Party/LwIP/src/core/tcp_out.c ****         pcb->unacked = seg;
1142:Middlewares/Third_Party/LwIP/src/core/tcp_out.c ****         useg = seg;
1143:Middlewares/Third_Party/LwIP/src/core/tcp_out.c ****       /* unacked list is not empty? */
1144:Middlewares/Third_Party/LwIP/src/core/tcp_out.c ****       } else {
1145:Middlewares/Third_Party/LwIP/src/core/tcp_out.c ****         /* In the case of fast retransmit, the packet should not go to the tail
1146:Middlewares/Third_Party/LwIP/src/core/tcp_out.c ****          * of the unacked queue, but rather somewhere before it. We need to check for
1147:Middlewares/Third_Party/LwIP/src/core/tcp_out.c ****          * this case. -STJ Jul 27, 2004 */
1148:Middlewares/Third_Party/LwIP/src/core/tcp_out.c ****         if (TCP_SEQ_LT(lwip_ntohl(seg->tcphdr->seqno), lwip_ntohl(useg->tcphdr->seqno))) {
1149:Middlewares/Third_Party/LwIP/src/core/tcp_out.c ****           /* add segment to before tail of unacked list, keeping the list sorted */
1150:Middlewares/Third_Party/LwIP/src/core/tcp_out.c ****           struct tcp_seg **cur_seg = &(pcb->unacked);
1151:Middlewares/Third_Party/LwIP/src/core/tcp_out.c ****           while (*cur_seg &&
1152:Middlewares/Third_Party/LwIP/src/core/tcp_out.c ****             TCP_SEQ_LT(lwip_ntohl((*cur_seg)->tcphdr->seqno), lwip_ntohl(seg->tcphdr->seqno))) {
1153:Middlewares/Third_Party/LwIP/src/core/tcp_out.c ****               cur_seg = &((*cur_seg)->next );
1154:Middlewares/Third_Party/LwIP/src/core/tcp_out.c ****           }
1155:Middlewares/Third_Party/LwIP/src/core/tcp_out.c ****           seg->next = (*cur_seg);
1156:Middlewares/Third_Party/LwIP/src/core/tcp_out.c ****           (*cur_seg) = seg;
1157:Middlewares/Third_Party/LwIP/src/core/tcp_out.c ****         } else {
1158:Middlewares/Third_Party/LwIP/src/core/tcp_out.c ****           /* add segment to tail of unacked list */
1159:Middlewares/Third_Party/LwIP/src/core/tcp_out.c ****           useg->next = seg;
1160:Middlewares/Third_Party/LwIP/src/core/tcp_out.c ****           useg = useg->next;
1161:Middlewares/Third_Party/LwIP/src/core/tcp_out.c ****         }
ARM GAS  /tmp/ccG0FHgO.s 			page 37


1162:Middlewares/Third_Party/LwIP/src/core/tcp_out.c ****       }
1163:Middlewares/Third_Party/LwIP/src/core/tcp_out.c ****     /* do not queue empty segments on the unacked list */
1164:Middlewares/Third_Party/LwIP/src/core/tcp_out.c ****     } else {
1165:Middlewares/Third_Party/LwIP/src/core/tcp_out.c ****       tcp_seg_free(seg);
1166:Middlewares/Third_Party/LwIP/src/core/tcp_out.c ****     }
1167:Middlewares/Third_Party/LwIP/src/core/tcp_out.c ****     seg = pcb->unsent;
1168:Middlewares/Third_Party/LwIP/src/core/tcp_out.c ****   }
1169:Middlewares/Third_Party/LwIP/src/core/tcp_out.c **** output_done:
1170:Middlewares/Third_Party/LwIP/src/core/tcp_out.c **** #if TCP_OVERSIZE
1171:Middlewares/Third_Party/LwIP/src/core/tcp_out.c ****   if (pcb->unsent == NULL) {
1172:Middlewares/Third_Party/LwIP/src/core/tcp_out.c ****     /* last unsent has been removed, reset unsent_oversize */
1173:Middlewares/Third_Party/LwIP/src/core/tcp_out.c ****     pcb->unsent_oversize = 0;
1174:Middlewares/Third_Party/LwIP/src/core/tcp_out.c ****   }
1175:Middlewares/Third_Party/LwIP/src/core/tcp_out.c **** #endif /* TCP_OVERSIZE */
1176:Middlewares/Third_Party/LwIP/src/core/tcp_out.c **** 
1177:Middlewares/Third_Party/LwIP/src/core/tcp_out.c ****   pcb->flags &= ~TF_NAGLEMEMERR;
1178:Middlewares/Third_Party/LwIP/src/core/tcp_out.c ****   return ERR_OK;
1179:Middlewares/Third_Party/LwIP/src/core/tcp_out.c **** }
1180:Middlewares/Third_Party/LwIP/src/core/tcp_out.c **** 
1181:Middlewares/Third_Party/LwIP/src/core/tcp_out.c **** /**
1182:Middlewares/Third_Party/LwIP/src/core/tcp_out.c ****  * Called by tcp_output() to actually send a TCP segment over IP.
1183:Middlewares/Third_Party/LwIP/src/core/tcp_out.c ****  *
1184:Middlewares/Third_Party/LwIP/src/core/tcp_out.c ****  * @param seg the tcp_seg to send
1185:Middlewares/Third_Party/LwIP/src/core/tcp_out.c ****  * @param pcb the tcp_pcb for the TCP connection used to send the segment
1186:Middlewares/Third_Party/LwIP/src/core/tcp_out.c ****  * @param netif the netif used to send the segment
1187:Middlewares/Third_Party/LwIP/src/core/tcp_out.c ****  */
1188:Middlewares/Third_Party/LwIP/src/core/tcp_out.c **** static err_t
1189:Middlewares/Third_Party/LwIP/src/core/tcp_out.c **** tcp_output_segment(struct tcp_seg *seg, struct tcp_pcb *pcb, struct netif *netif)
1190:Middlewares/Third_Party/LwIP/src/core/tcp_out.c **** {
 696              		.loc 1 1190 1 is_stmt 1 view -0
 697              		.cfi_startproc
 698              		@ args = 0, pretend = 0, frame = 0
 699              		@ frame_needed = 0, uses_anonymous_args = 0
1191:Middlewares/Third_Party/LwIP/src/core/tcp_out.c ****   err_t err;
 700              		.loc 1 1191 3 view .LVU207
1192:Middlewares/Third_Party/LwIP/src/core/tcp_out.c ****   u16_t len;
 701              		.loc 1 1192 3 view .LVU208
1193:Middlewares/Third_Party/LwIP/src/core/tcp_out.c ****   u32_t *opts;
 702              		.loc 1 1193 3 view .LVU209
1194:Middlewares/Third_Party/LwIP/src/core/tcp_out.c **** 
1195:Middlewares/Third_Party/LwIP/src/core/tcp_out.c ****   if (seg->p->ref != 1) {
 703              		.loc 1 1195 3 view .LVU210
 704              		.loc 1 1195 10 is_stmt 0 view .LVU211
 705 0000 4368     		ldr	r3, [r0, #4]
 706              		.loc 1 1195 13 view .LVU212
 707 0002 DB89     		ldrh	r3, [r3, #14]
 708              		.loc 1 1195 6 view .LVU213
 709 0004 012B     		cmp	r3, #1
 710 0006 01D0     		beq	.L61
1196:Middlewares/Third_Party/LwIP/src/core/tcp_out.c ****     /* This can happen if the pbuf of this segment is still referenced by the
1197:Middlewares/Third_Party/LwIP/src/core/tcp_out.c ****        netif driver due to deferred transmission. Since this function modifies
1198:Middlewares/Third_Party/LwIP/src/core/tcp_out.c ****        p->len, we must not continue in this case. */
1199:Middlewares/Third_Party/LwIP/src/core/tcp_out.c ****     return ERR_OK;
 711              		.loc 1 1199 12 view .LVU214
 712 0008 0020     		movs	r0, #0
 713              	.LVL71:
1200:Middlewares/Third_Party/LwIP/src/core/tcp_out.c ****   }
ARM GAS  /tmp/ccG0FHgO.s 			page 38


1201:Middlewares/Third_Party/LwIP/src/core/tcp_out.c **** 
1202:Middlewares/Third_Party/LwIP/src/core/tcp_out.c ****   /* The TCP header has already been constructed, but the ackno and
1203:Middlewares/Third_Party/LwIP/src/core/tcp_out.c ****    wnd fields remain. */
1204:Middlewares/Third_Party/LwIP/src/core/tcp_out.c ****   seg->tcphdr->ackno = lwip_htonl(pcb->rcv_nxt);
1205:Middlewares/Third_Party/LwIP/src/core/tcp_out.c **** 
1206:Middlewares/Third_Party/LwIP/src/core/tcp_out.c ****   /* advertise our receive window size in this TCP segment */
1207:Middlewares/Third_Party/LwIP/src/core/tcp_out.c **** #if LWIP_WND_SCALE
1208:Middlewares/Third_Party/LwIP/src/core/tcp_out.c ****   if (seg->flags & TF_SEG_OPTS_WND_SCALE) {
1209:Middlewares/Third_Party/LwIP/src/core/tcp_out.c ****     /* The Window field in a SYN segment itself (the only type where we send
1210:Middlewares/Third_Party/LwIP/src/core/tcp_out.c ****        the window scale option) is never scaled. */
1211:Middlewares/Third_Party/LwIP/src/core/tcp_out.c ****     seg->tcphdr->wnd = lwip_htons(TCPWND_MIN16(pcb->rcv_ann_wnd));
1212:Middlewares/Third_Party/LwIP/src/core/tcp_out.c ****   } else
1213:Middlewares/Third_Party/LwIP/src/core/tcp_out.c **** #endif /* LWIP_WND_SCALE */
1214:Middlewares/Third_Party/LwIP/src/core/tcp_out.c ****   {
1215:Middlewares/Third_Party/LwIP/src/core/tcp_out.c ****     seg->tcphdr->wnd = lwip_htons(TCPWND_MIN16(RCV_WND_SCALE(pcb, pcb->rcv_ann_wnd)));
1216:Middlewares/Third_Party/LwIP/src/core/tcp_out.c ****   }
1217:Middlewares/Third_Party/LwIP/src/core/tcp_out.c **** 
1218:Middlewares/Third_Party/LwIP/src/core/tcp_out.c ****   pcb->rcv_ann_right_edge = pcb->rcv_nxt + pcb->rcv_ann_wnd;
1219:Middlewares/Third_Party/LwIP/src/core/tcp_out.c **** 
1220:Middlewares/Third_Party/LwIP/src/core/tcp_out.c ****   /* Add any requested options.  NB MSS option is only set on SYN
1221:Middlewares/Third_Party/LwIP/src/core/tcp_out.c ****      packets, so ignore it here */
1222:Middlewares/Third_Party/LwIP/src/core/tcp_out.c ****   /* cast through void* to get rid of alignment warnings */
1223:Middlewares/Third_Party/LwIP/src/core/tcp_out.c ****   opts = (u32_t *)(void *)(seg->tcphdr + 1);
1224:Middlewares/Third_Party/LwIP/src/core/tcp_out.c ****   if (seg->flags & TF_SEG_OPTS_MSS) {
1225:Middlewares/Third_Party/LwIP/src/core/tcp_out.c ****     u16_t mss;
1226:Middlewares/Third_Party/LwIP/src/core/tcp_out.c **** #if TCP_CALCULATE_EFF_SEND_MSS
1227:Middlewares/Third_Party/LwIP/src/core/tcp_out.c ****     mss = tcp_eff_send_mss(TCP_MSS, &pcb->local_ip, &pcb->remote_ip);
1228:Middlewares/Third_Party/LwIP/src/core/tcp_out.c **** #else /* TCP_CALCULATE_EFF_SEND_MSS */
1229:Middlewares/Third_Party/LwIP/src/core/tcp_out.c ****     mss = TCP_MSS;
1230:Middlewares/Third_Party/LwIP/src/core/tcp_out.c **** #endif /* TCP_CALCULATE_EFF_SEND_MSS */
1231:Middlewares/Third_Party/LwIP/src/core/tcp_out.c ****     *opts = TCP_BUILD_MSS_OPTION(mss);
1232:Middlewares/Third_Party/LwIP/src/core/tcp_out.c ****     opts += 1;
1233:Middlewares/Third_Party/LwIP/src/core/tcp_out.c ****   }
1234:Middlewares/Third_Party/LwIP/src/core/tcp_out.c **** #if LWIP_TCP_TIMESTAMPS
1235:Middlewares/Third_Party/LwIP/src/core/tcp_out.c ****   pcb->ts_lastacksent = pcb->rcv_nxt;
1236:Middlewares/Third_Party/LwIP/src/core/tcp_out.c **** 
1237:Middlewares/Third_Party/LwIP/src/core/tcp_out.c ****   if (seg->flags & TF_SEG_OPTS_TS) {
1238:Middlewares/Third_Party/LwIP/src/core/tcp_out.c ****     tcp_build_timestamp_option(pcb, opts);
1239:Middlewares/Third_Party/LwIP/src/core/tcp_out.c ****     opts += 3;
1240:Middlewares/Third_Party/LwIP/src/core/tcp_out.c ****   }
1241:Middlewares/Third_Party/LwIP/src/core/tcp_out.c **** #endif
1242:Middlewares/Third_Party/LwIP/src/core/tcp_out.c **** #if LWIP_WND_SCALE
1243:Middlewares/Third_Party/LwIP/src/core/tcp_out.c ****   if (seg->flags & TF_SEG_OPTS_WND_SCALE) {
1244:Middlewares/Third_Party/LwIP/src/core/tcp_out.c ****     tcp_build_wnd_scale_option(opts);
1245:Middlewares/Third_Party/LwIP/src/core/tcp_out.c ****     opts += 1;
1246:Middlewares/Third_Party/LwIP/src/core/tcp_out.c ****   }
1247:Middlewares/Third_Party/LwIP/src/core/tcp_out.c **** #endif
1248:Middlewares/Third_Party/LwIP/src/core/tcp_out.c **** 
1249:Middlewares/Third_Party/LwIP/src/core/tcp_out.c ****   /* Set retransmission timer running if it is not currently enabled
1250:Middlewares/Third_Party/LwIP/src/core/tcp_out.c ****      This must be set before checking the route. */
1251:Middlewares/Third_Party/LwIP/src/core/tcp_out.c ****   if (pcb->rtime < 0) {
1252:Middlewares/Third_Party/LwIP/src/core/tcp_out.c ****     pcb->rtime = 0;
1253:Middlewares/Third_Party/LwIP/src/core/tcp_out.c ****   }
1254:Middlewares/Third_Party/LwIP/src/core/tcp_out.c **** 
1255:Middlewares/Third_Party/LwIP/src/core/tcp_out.c ****   if (pcb->rttest == 0) {
1256:Middlewares/Third_Party/LwIP/src/core/tcp_out.c ****     pcb->rttest = tcp_ticks;
1257:Middlewares/Third_Party/LwIP/src/core/tcp_out.c ****     pcb->rtseq = lwip_ntohl(seg->tcphdr->seqno);
ARM GAS  /tmp/ccG0FHgO.s 			page 39


1258:Middlewares/Third_Party/LwIP/src/core/tcp_out.c **** 
1259:Middlewares/Third_Party/LwIP/src/core/tcp_out.c ****     LWIP_DEBUGF(TCP_RTO_DEBUG, ("tcp_output_segment: rtseq %"U32_F"\n", pcb->rtseq));
1260:Middlewares/Third_Party/LwIP/src/core/tcp_out.c ****   }
1261:Middlewares/Third_Party/LwIP/src/core/tcp_out.c ****   LWIP_DEBUGF(TCP_OUTPUT_DEBUG, ("tcp_output_segment: %"U32_F":%"U32_F"\n",
1262:Middlewares/Third_Party/LwIP/src/core/tcp_out.c ****           lwip_htonl(seg->tcphdr->seqno), lwip_htonl(seg->tcphdr->seqno) +
1263:Middlewares/Third_Party/LwIP/src/core/tcp_out.c ****           seg->len));
1264:Middlewares/Third_Party/LwIP/src/core/tcp_out.c **** 
1265:Middlewares/Third_Party/LwIP/src/core/tcp_out.c ****   len = (u16_t)((u8_t *)seg->tcphdr - (u8_t *)seg->p->payload);
1266:Middlewares/Third_Party/LwIP/src/core/tcp_out.c ****   if (len == 0) {
1267:Middlewares/Third_Party/LwIP/src/core/tcp_out.c ****     /** Exclude retransmitted segments from this count. */
1268:Middlewares/Third_Party/LwIP/src/core/tcp_out.c ****     MIB2_STATS_INC(mib2.tcpoutsegs);
1269:Middlewares/Third_Party/LwIP/src/core/tcp_out.c ****   }
1270:Middlewares/Third_Party/LwIP/src/core/tcp_out.c **** 
1271:Middlewares/Third_Party/LwIP/src/core/tcp_out.c ****   seg->p->len -= len;
1272:Middlewares/Third_Party/LwIP/src/core/tcp_out.c ****   seg->p->tot_len -= len;
1273:Middlewares/Third_Party/LwIP/src/core/tcp_out.c **** 
1274:Middlewares/Third_Party/LwIP/src/core/tcp_out.c ****   seg->p->payload = seg->tcphdr;
1275:Middlewares/Third_Party/LwIP/src/core/tcp_out.c **** 
1276:Middlewares/Third_Party/LwIP/src/core/tcp_out.c ****   seg->tcphdr->chksum = 0;
1277:Middlewares/Third_Party/LwIP/src/core/tcp_out.c **** #if CHECKSUM_GEN_TCP
1278:Middlewares/Third_Party/LwIP/src/core/tcp_out.c ****   IF__NETIF_CHECKSUM_ENABLED(netif, NETIF_CHECKSUM_GEN_TCP) {
1279:Middlewares/Third_Party/LwIP/src/core/tcp_out.c **** #if TCP_CHECKSUM_ON_COPY
1280:Middlewares/Third_Party/LwIP/src/core/tcp_out.c ****     u32_t acc;
1281:Middlewares/Third_Party/LwIP/src/core/tcp_out.c **** #if TCP_CHECKSUM_ON_COPY_SANITY_CHECK
1282:Middlewares/Third_Party/LwIP/src/core/tcp_out.c ****     u16_t chksum_slow = ip_chksum_pseudo(seg->p, IP_PROTO_TCP,
1283:Middlewares/Third_Party/LwIP/src/core/tcp_out.c ****       seg->p->tot_len, &pcb->local_ip, &pcb->remote_ip);
1284:Middlewares/Third_Party/LwIP/src/core/tcp_out.c **** #endif /* TCP_CHECKSUM_ON_COPY_SANITY_CHECK */
1285:Middlewares/Third_Party/LwIP/src/core/tcp_out.c ****     if ((seg->flags & TF_SEG_DATA_CHECKSUMMED) == 0) {
1286:Middlewares/Third_Party/LwIP/src/core/tcp_out.c ****       LWIP_ASSERT("data included but not checksummed",
1287:Middlewares/Third_Party/LwIP/src/core/tcp_out.c ****         seg->p->tot_len == (TCPH_HDRLEN(seg->tcphdr) * 4));
1288:Middlewares/Third_Party/LwIP/src/core/tcp_out.c ****     }
1289:Middlewares/Third_Party/LwIP/src/core/tcp_out.c **** 
1290:Middlewares/Third_Party/LwIP/src/core/tcp_out.c ****     /* rebuild TCP header checksum (TCP header changes for retransmissions!) */
1291:Middlewares/Third_Party/LwIP/src/core/tcp_out.c ****     acc = ip_chksum_pseudo_partial(seg->p, IP_PROTO_TCP,
1292:Middlewares/Third_Party/LwIP/src/core/tcp_out.c ****       seg->p->tot_len, TCPH_HDRLEN(seg->tcphdr) * 4, &pcb->local_ip, &pcb->remote_ip);
1293:Middlewares/Third_Party/LwIP/src/core/tcp_out.c ****     /* add payload checksum */
1294:Middlewares/Third_Party/LwIP/src/core/tcp_out.c ****     if (seg->chksum_swapped) {
1295:Middlewares/Third_Party/LwIP/src/core/tcp_out.c ****       seg->chksum = SWAP_BYTES_IN_WORD(seg->chksum);
1296:Middlewares/Third_Party/LwIP/src/core/tcp_out.c ****       seg->chksum_swapped = 0;
1297:Middlewares/Third_Party/LwIP/src/core/tcp_out.c ****     }
1298:Middlewares/Third_Party/LwIP/src/core/tcp_out.c ****     acc += (u16_t)~(seg->chksum);
1299:Middlewares/Third_Party/LwIP/src/core/tcp_out.c ****     seg->tcphdr->chksum = FOLD_U32T(acc);
1300:Middlewares/Third_Party/LwIP/src/core/tcp_out.c **** #if TCP_CHECKSUM_ON_COPY_SANITY_CHECK
1301:Middlewares/Third_Party/LwIP/src/core/tcp_out.c ****     if (chksum_slow != seg->tcphdr->chksum) {
1302:Middlewares/Third_Party/LwIP/src/core/tcp_out.c ****       TCP_CHECKSUM_ON_COPY_SANITY_CHECK_FAIL(
1303:Middlewares/Third_Party/LwIP/src/core/tcp_out.c ****                   ("tcp_output_segment: calculated checksum is %"X16_F" instead of %"X16_F"\n",
1304:Middlewares/Third_Party/LwIP/src/core/tcp_out.c ****                   seg->tcphdr->chksum, chksum_slow));
1305:Middlewares/Third_Party/LwIP/src/core/tcp_out.c ****       seg->tcphdr->chksum = chksum_slow;
1306:Middlewares/Third_Party/LwIP/src/core/tcp_out.c ****     }
1307:Middlewares/Third_Party/LwIP/src/core/tcp_out.c **** #endif /* TCP_CHECKSUM_ON_COPY_SANITY_CHECK */
1308:Middlewares/Third_Party/LwIP/src/core/tcp_out.c **** #else /* TCP_CHECKSUM_ON_COPY */
1309:Middlewares/Third_Party/LwIP/src/core/tcp_out.c ****     seg->tcphdr->chksum = ip_chksum_pseudo(seg->p, IP_PROTO_TCP,
1310:Middlewares/Third_Party/LwIP/src/core/tcp_out.c ****       seg->p->tot_len, &pcb->local_ip, &pcb->remote_ip);
1311:Middlewares/Third_Party/LwIP/src/core/tcp_out.c **** #endif /* TCP_CHECKSUM_ON_COPY */
1312:Middlewares/Third_Party/LwIP/src/core/tcp_out.c ****   }
1313:Middlewares/Third_Party/LwIP/src/core/tcp_out.c **** #endif /* CHECKSUM_GEN_TCP */
1314:Middlewares/Third_Party/LwIP/src/core/tcp_out.c ****   TCP_STATS_INC(tcp.xmit);
ARM GAS  /tmp/ccG0FHgO.s 			page 40


1315:Middlewares/Third_Party/LwIP/src/core/tcp_out.c **** 
1316:Middlewares/Third_Party/LwIP/src/core/tcp_out.c ****   NETIF_SET_HWADDRHINT(netif, &(pcb->addr_hint));
1317:Middlewares/Third_Party/LwIP/src/core/tcp_out.c ****   err = ip_output_if(seg->p, &pcb->local_ip, &pcb->remote_ip, pcb->ttl,
1318:Middlewares/Third_Party/LwIP/src/core/tcp_out.c ****     pcb->tos, IP_PROTO_TCP, netif);
1319:Middlewares/Third_Party/LwIP/src/core/tcp_out.c ****   NETIF_SET_HWADDRHINT(netif, NULL);
1320:Middlewares/Third_Party/LwIP/src/core/tcp_out.c ****   return err;
1321:Middlewares/Third_Party/LwIP/src/core/tcp_out.c **** }
 714              		.loc 1 1321 1 view .LVU215
 715 000a 7047     		bx	lr
 716              	.LVL72:
 717              	.L61:
1190:Middlewares/Third_Party/LwIP/src/core/tcp_out.c ****   err_t err;
 718              		.loc 1 1190 1 view .LVU216
 719 000c F0B5     		push	{r4, r5, r6, r7, lr}
 720              	.LCFI4:
 721              		.cfi_def_cfa_offset 20
 722              		.cfi_offset 4, -20
 723              		.cfi_offset 5, -16
 724              		.cfi_offset 6, -12
 725              		.cfi_offset 7, -8
 726              		.cfi_offset 14, -4
 727 000e 85B0     		sub	sp, sp, #20
 728              	.LCFI5:
 729              		.cfi_def_cfa_offset 40
 730 0010 0446     		mov	r4, r0
 731 0012 0D46     		mov	r5, r1
 732 0014 1646     		mov	r6, r2
1204:Middlewares/Third_Party/LwIP/src/core/tcp_out.c **** 
 733              		.loc 1 1204 3 is_stmt 1 view .LVU217
1204:Middlewares/Third_Party/LwIP/src/core/tcp_out.c **** 
 734              		.loc 1 1204 6 is_stmt 0 view .LVU218
 735 0016 C768     		ldr	r7, [r0, #12]
1204:Middlewares/Third_Party/LwIP/src/core/tcp_out.c **** 
 736              		.loc 1 1204 24 view .LVU219
 737 0018 486A     		ldr	r0, [r1, #36]
 738              	.LVL73:
1204:Middlewares/Third_Party/LwIP/src/core/tcp_out.c **** 
 739              		.loc 1 1204 24 view .LVU220
 740 001a FFF7FEFF 		bl	lwip_htonl
 741              	.LVL74:
1204:Middlewares/Third_Party/LwIP/src/core/tcp_out.c **** 
 742              		.loc 1 1204 22 view .LVU221
 743 001e B860     		str	r0, [r7, #8]	@ unaligned
1215:Middlewares/Third_Party/LwIP/src/core/tcp_out.c ****   }
 744              		.loc 1 1215 5 is_stmt 1 view .LVU222
1215:Middlewares/Third_Party/LwIP/src/core/tcp_out.c ****   }
 745              		.loc 1 1215 8 is_stmt 0 view .LVU223
 746 0020 E768     		ldr	r7, [r4, #12]
1215:Middlewares/Third_Party/LwIP/src/core/tcp_out.c ****   }
 747              		.loc 1 1215 24 view .LVU224
 748 0022 688D     		ldrh	r0, [r5, #42]
 749 0024 FFF7FEFF 		bl	lwip_htons
 750              	.LVL75:
1215:Middlewares/Third_Party/LwIP/src/core/tcp_out.c ****   }
 751              		.loc 1 1215 22 view .LVU225
 752 0028 F881     		strh	r0, [r7, #14]	@ unaligned
1218:Middlewares/Third_Party/LwIP/src/core/tcp_out.c **** 
ARM GAS  /tmp/ccG0FHgO.s 			page 41


 753              		.loc 1 1218 3 is_stmt 1 view .LVU226
1218:Middlewares/Third_Party/LwIP/src/core/tcp_out.c **** 
 754              		.loc 1 1218 32 is_stmt 0 view .LVU227
 755 002a 6B6A     		ldr	r3, [r5, #36]
1218:Middlewares/Third_Party/LwIP/src/core/tcp_out.c **** 
 756              		.loc 1 1218 47 view .LVU228
 757 002c 6A8D     		ldrh	r2, [r5, #42]
1218:Middlewares/Third_Party/LwIP/src/core/tcp_out.c **** 
 758              		.loc 1 1218 42 view .LVU229
 759 002e 1344     		add	r3, r3, r2
1218:Middlewares/Third_Party/LwIP/src/core/tcp_out.c **** 
 760              		.loc 1 1218 27 view .LVU230
 761 0030 EB62     		str	r3, [r5, #44]
1223:Middlewares/Third_Party/LwIP/src/core/tcp_out.c ****   if (seg->flags & TF_SEG_OPTS_MSS) {
 762              		.loc 1 1223 3 is_stmt 1 view .LVU231
1223:Middlewares/Third_Party/LwIP/src/core/tcp_out.c ****   if (seg->flags & TF_SEG_OPTS_MSS) {
 763              		.loc 1 1223 31 is_stmt 0 view .LVU232
 764 0032 E768     		ldr	r7, [r4, #12]
 765              	.LVL76:
1224:Middlewares/Third_Party/LwIP/src/core/tcp_out.c ****     u16_t mss;
 766              		.loc 1 1224 3 is_stmt 1 view .LVU233
1224:Middlewares/Third_Party/LwIP/src/core/tcp_out.c ****     u16_t mss;
 767              		.loc 1 1224 10 is_stmt 0 view .LVU234
 768 0034 A37A     		ldrb	r3, [r4, #10]	@ zero_extendqisi2
1224:Middlewares/Third_Party/LwIP/src/core/tcp_out.c ****     u16_t mss;
 769              		.loc 1 1224 6 view .LVU235
 770 0036 13F0010F 		tst	r3, #1
 771 003a 25D1     		bne	.L62
 772              	.LVL77:
 773              	.L53:
1251:Middlewares/Third_Party/LwIP/src/core/tcp_out.c ****     pcb->rtime = 0;
 774              		.loc 1 1251 3 is_stmt 1 view .LVU236
1251:Middlewares/Third_Party/LwIP/src/core/tcp_out.c ****     pcb->rtime = 0;
 775              		.loc 1 1251 10 is_stmt 0 view .LVU237
 776 003c B5F93030 		ldrsh	r3, [r5, #48]
1251:Middlewares/Third_Party/LwIP/src/core/tcp_out.c ****     pcb->rtime = 0;
 777              		.loc 1 1251 6 view .LVU238
 778 0040 002B     		cmp	r3, #0
 779 0042 2CDB     		blt	.L63
 780              	.L54:
1255:Middlewares/Third_Party/LwIP/src/core/tcp_out.c ****     pcb->rttest = tcp_ticks;
 781              		.loc 1 1255 3 is_stmt 1 view .LVU239
1255:Middlewares/Third_Party/LwIP/src/core/tcp_out.c ****     pcb->rttest = tcp_ticks;
 782              		.loc 1 1255 10 is_stmt 0 view .LVU240
 783 0044 6B6B     		ldr	r3, [r5, #52]
1255:Middlewares/Third_Party/LwIP/src/core/tcp_out.c ****     pcb->rttest = tcp_ticks;
 784              		.loc 1 1255 6 view .LVU241
 785 0046 002B     		cmp	r3, #0
 786 0048 2CD0     		beq	.L64
 787              	.L55:
1259:Middlewares/Third_Party/LwIP/src/core/tcp_out.c ****   }
 788              		.loc 1 1259 85 is_stmt 1 view .LVU242
1263:Middlewares/Third_Party/LwIP/src/core/tcp_out.c **** 
 789              		.loc 1 1263 21 view .LVU243
1265:Middlewares/Third_Party/LwIP/src/core/tcp_out.c ****   if (len == 0) {
 790              		.loc 1 1265 3 view .LVU244
1265:Middlewares/Third_Party/LwIP/src/core/tcp_out.c ****   if (len == 0) {
ARM GAS  /tmp/ccG0FHgO.s 			page 42


 791              		.loc 1 1265 28 is_stmt 0 view .LVU245
 792 004a E368     		ldr	r3, [r4, #12]
1265:Middlewares/Third_Party/LwIP/src/core/tcp_out.c ****   if (len == 0) {
 793              		.loc 1 1265 50 view .LVU246
 794 004c 6268     		ldr	r2, [r4, #4]
1265:Middlewares/Third_Party/LwIP/src/core/tcp_out.c ****   if (len == 0) {
 795              		.loc 1 1265 53 view .LVU247
 796 004e 5168     		ldr	r1, [r2, #4]
1265:Middlewares/Third_Party/LwIP/src/core/tcp_out.c ****   if (len == 0) {
 797              		.loc 1 1265 37 view .LVU248
 798 0050 5B1A     		subs	r3, r3, r1
1265:Middlewares/Third_Party/LwIP/src/core/tcp_out.c ****   if (len == 0) {
 799              		.loc 1 1265 7 view .LVU249
 800 0052 9BB2     		uxth	r3, r3
 801              	.LVL78:
1266:Middlewares/Third_Party/LwIP/src/core/tcp_out.c ****     /** Exclude retransmitted segments from this count. */
 802              		.loc 1 1266 3 is_stmt 1 view .LVU250
1268:Middlewares/Third_Party/LwIP/src/core/tcp_out.c ****   }
 803              		.loc 1 1268 36 view .LVU251
1271:Middlewares/Third_Party/LwIP/src/core/tcp_out.c ****   seg->p->tot_len -= len;
 804              		.loc 1 1271 3 view .LVU252
1271:Middlewares/Third_Party/LwIP/src/core/tcp_out.c ****   seg->p->tot_len -= len;
 805              		.loc 1 1271 15 is_stmt 0 view .LVU253
 806 0054 5189     		ldrh	r1, [r2, #10]
 807 0056 C91A     		subs	r1, r1, r3
 808 0058 5181     		strh	r1, [r2, #10]	@ movhi
1272:Middlewares/Third_Party/LwIP/src/core/tcp_out.c **** 
 809              		.loc 1 1272 3 is_stmt 1 view .LVU254
1272:Middlewares/Third_Party/LwIP/src/core/tcp_out.c **** 
 810              		.loc 1 1272 6 is_stmt 0 view .LVU255
 811 005a 6168     		ldr	r1, [r4, #4]
1272:Middlewares/Third_Party/LwIP/src/core/tcp_out.c **** 
 812              		.loc 1 1272 19 view .LVU256
 813 005c 0A89     		ldrh	r2, [r1, #8]
 814 005e D31A     		subs	r3, r2, r3
 815              	.LVL79:
1272:Middlewares/Third_Party/LwIP/src/core/tcp_out.c **** 
 816              		.loc 1 1272 19 view .LVU257
 817 0060 0B81     		strh	r3, [r1, #8]	@ movhi
1274:Middlewares/Third_Party/LwIP/src/core/tcp_out.c **** 
 818              		.loc 1 1274 3 is_stmt 1 view .LVU258
1274:Middlewares/Third_Party/LwIP/src/core/tcp_out.c **** 
 819              		.loc 1 1274 6 is_stmt 0 view .LVU259
 820 0062 6268     		ldr	r2, [r4, #4]
1274:Middlewares/Third_Party/LwIP/src/core/tcp_out.c **** 
 821              		.loc 1 1274 24 view .LVU260
 822 0064 E368     		ldr	r3, [r4, #12]
1274:Middlewares/Third_Party/LwIP/src/core/tcp_out.c **** 
 823              		.loc 1 1274 19 view .LVU261
 824 0066 5360     		str	r3, [r2, #4]
1276:Middlewares/Third_Party/LwIP/src/core/tcp_out.c **** #if CHECKSUM_GEN_TCP
 825              		.loc 1 1276 3 is_stmt 1 view .LVU262
1276:Middlewares/Third_Party/LwIP/src/core/tcp_out.c **** #if CHECKSUM_GEN_TCP
 826              		.loc 1 1276 23 is_stmt 0 view .LVU263
 827 0068 0022     		movs	r2, #0
 828 006a 1A74     		strb	r2, [r3, #16]
 829 006c 5A74     		strb	r2, [r3, #17]
ARM GAS  /tmp/ccG0FHgO.s 			page 43


1314:Middlewares/Third_Party/LwIP/src/core/tcp_out.c **** 
 830              		.loc 1 1314 26 is_stmt 1 view .LVU264
1316:Middlewares/Third_Party/LwIP/src/core/tcp_out.c ****   err = ip_output_if(seg->p, &pcb->local_ip, &pcb->remote_ip, pcb->ttl,
 831              		.loc 1 1316 49 view .LVU265
1317:Middlewares/Third_Party/LwIP/src/core/tcp_out.c ****     pcb->tos, IP_PROTO_TCP, netif);
 832              		.loc 1 1317 3 view .LVU266
1317:Middlewares/Third_Party/LwIP/src/core/tcp_out.c ****     pcb->tos, IP_PROTO_TCP, netif);
 833              		.loc 1 1317 9 is_stmt 0 view .LVU267
 834 006e 0296     		str	r6, [sp, #8]
 835 0070 0623     		movs	r3, #6
 836 0072 0193     		str	r3, [sp, #4]
 837 0074 6B7A     		ldrb	r3, [r5, #9]	@ zero_extendqisi2
 838 0076 0093     		str	r3, [sp]
 839 0078 AB7A     		ldrb	r3, [r5, #10]	@ zero_extendqisi2
 840 007a 2A1D     		adds	r2, r5, #4
 841 007c 2946     		mov	r1, r5
 842 007e 6068     		ldr	r0, [r4, #4]
 843 0080 FFF7FEFF 		bl	ip4_output_if
 844              	.LVL80:
1319:Middlewares/Third_Party/LwIP/src/core/tcp_out.c ****   return err;
 845              		.loc 1 1319 36 is_stmt 1 view .LVU268
1320:Middlewares/Third_Party/LwIP/src/core/tcp_out.c **** }
 846              		.loc 1 1320 3 view .LVU269
 847              		.loc 1 1321 1 is_stmt 0 view .LVU270
 848 0084 05B0     		add	sp, sp, #20
 849              	.LCFI6:
 850              		.cfi_remember_state
 851              		.cfi_def_cfa_offset 20
 852              		@ sp needed
 853 0086 F0BD     		pop	{r4, r5, r6, r7, pc}
 854              	.LVL81:
 855              	.L62:
 856              	.LCFI7:
 857              		.cfi_restore_state
 858              	.LBB2:
1225:Middlewares/Third_Party/LwIP/src/core/tcp_out.c **** #if TCP_CALCULATE_EFF_SEND_MSS
 859              		.loc 1 1225 5 is_stmt 1 view .LVU271
1227:Middlewares/Third_Party/LwIP/src/core/tcp_out.c **** #else /* TCP_CALCULATE_EFF_SEND_MSS */
 860              		.loc 1 1227 5 view .LVU272
1227:Middlewares/Third_Party/LwIP/src/core/tcp_out.c **** #else /* TCP_CALCULATE_EFF_SEND_MSS */
 861              		.loc 1 1227 11 is_stmt 0 view .LVU273
 862 0088 291D     		adds	r1, r5, #4
 863 008a 4FF40670 		mov	r0, #536
 864 008e FFF7FEFF 		bl	tcp_eff_send_mss_impl
 865              	.LVL82:
1231:Middlewares/Third_Party/LwIP/src/core/tcp_out.c ****     opts += 1;
 866              		.loc 1 1231 5 is_stmt 1 view .LVU274
1231:Middlewares/Third_Party/LwIP/src/core/tcp_out.c ****     opts += 1;
 867              		.loc 1 1231 13 is_stmt 0 view .LVU275
 868 0092 40F00170 		orr	r0, r0, #33816576
 869              	.LVL83:
1231:Middlewares/Third_Party/LwIP/src/core/tcp_out.c ****     opts += 1;
 870              		.loc 1 1231 13 view .LVU276
 871 0096 FFF7FEFF 		bl	lwip_htonl
 872              	.LVL84:
1231:Middlewares/Third_Party/LwIP/src/core/tcp_out.c ****     opts += 1;
 873              		.loc 1 1231 11 view .LVU277
ARM GAS  /tmp/ccG0FHgO.s 			page 44


 874 009a 7861     		str	r0, [r7, #20]
1232:Middlewares/Third_Party/LwIP/src/core/tcp_out.c ****   }
 875              		.loc 1 1232 5 is_stmt 1 view .LVU278
 876              	.LVL85:
1232:Middlewares/Third_Party/LwIP/src/core/tcp_out.c ****   }
 877              		.loc 1 1232 5 is_stmt 0 view .LVU279
 878 009c CEE7     		b	.L53
 879              	.LVL86:
 880              	.L63:
1232:Middlewares/Third_Party/LwIP/src/core/tcp_out.c ****   }
 881              		.loc 1 1232 5 view .LVU280
 882              	.LBE2:
1252:Middlewares/Third_Party/LwIP/src/core/tcp_out.c ****   }
 883              		.loc 1 1252 5 is_stmt 1 view .LVU281
1252:Middlewares/Third_Party/LwIP/src/core/tcp_out.c ****   }
 884              		.loc 1 1252 16 is_stmt 0 view .LVU282
 885 009e 0023     		movs	r3, #0
 886 00a0 2B86     		strh	r3, [r5, #48]	@ movhi
 887 00a2 CFE7     		b	.L54
 888              	.L64:
1256:Middlewares/Third_Party/LwIP/src/core/tcp_out.c ****     pcb->rtseq = lwip_ntohl(seg->tcphdr->seqno);
 889              		.loc 1 1256 5 is_stmt 1 view .LVU283
1256:Middlewares/Third_Party/LwIP/src/core/tcp_out.c ****     pcb->rtseq = lwip_ntohl(seg->tcphdr->seqno);
 890              		.loc 1 1256 17 is_stmt 0 view .LVU284
 891 00a4 044B     		ldr	r3, .L65
 892 00a6 1B68     		ldr	r3, [r3]
 893 00a8 6B63     		str	r3, [r5, #52]
1257:Middlewares/Third_Party/LwIP/src/core/tcp_out.c **** 
 894              		.loc 1 1257 5 is_stmt 1 view .LVU285
1257:Middlewares/Third_Party/LwIP/src/core/tcp_out.c **** 
 895              		.loc 1 1257 18 is_stmt 0 view .LVU286
 896 00aa E368     		ldr	r3, [r4, #12]
 897 00ac 5868     		ldr	r0, [r3, #4]	@ unaligned
 898 00ae FFF7FEFF 		bl	lwip_htonl
 899              	.LVL87:
1257:Middlewares/Third_Party/LwIP/src/core/tcp_out.c **** 
 900              		.loc 1 1257 16 view .LVU287
 901 00b2 A863     		str	r0, [r5, #56]
 902 00b4 C9E7     		b	.L55
 903              	.L66:
 904 00b6 00BF     		.align	2
 905              	.L65:
 906 00b8 00000000 		.word	tcp_ticks
 907              		.cfi_endproc
 908              	.LFE106:
 910              		.section	.rodata.tcp_write.str1.4,"aMS",%progbits,1
 911              		.align	2
 912              	.LC7:
 913 0000 7463705F 		.ascii	"tcp_write: arg == NULL (programmer violates API)\000"
 913      77726974 
 913      653A2061 
 913      7267203D 
 913      3D204E55 
 914 0031 000000   		.align	2
 915              	.LC8:
 916 0034 6D73735F 		.ascii	"mss_local is too small\000"
 916      6C6F6361 
ARM GAS  /tmp/ccG0FHgO.s 			page 45


 916      6C206973 
 916      20746F6F 
 916      20736D61 
 917 004b 00       		.align	2
 918              	.LC9:
 919 004c 696E636F 		.ascii	"inconsistent oversize vs. space\000"
 919      6E736973 
 919      74656E74 
 919      206F7665 
 919      7273697A 
 920              		.align	2
 921              	.LC10:
 922 006c 696E636F 		.ascii	"inconsistent oversize vs. len\000"
 922      6E736973 
 922      74656E74 
 922      206F7665 
 922      7273697A 
 923 008a 0000     		.align	2
 924              	.LC11:
 925 008c 7463705F 		.ascii	"tcp_write: ROM pbufs cannot be oversized\000"
 925      77726974 
 925      653A2052 
 925      4F4D2070 
 925      62756673 
 926 00b5 000000   		.align	2
 927              	.LC12:
 928 00b8 756E7365 		.ascii	"unsent_oversize mismatch (pcb->unsent is NULL)\000"
 928      6E745F6F 
 928      76657273 
 928      697A6520 
 928      6D69736D 
 929 00e7 00       		.align	2
 930              	.LC13:
 931 00e8 7463705F 		.ascii	"tcp_write: check that first pbuf can hold the compl"
 931      77726974 
 931      653A2063 
 931      6865636B 
 931      20746861 
 932 011b 65746520 		.ascii	"ete seglen\000"
 932      7365676C 
 932      656E00
 933 0126 0000     		.align	2
 934              	.LC14:
 935 0128 6F766572 		.ascii	"oversize == 0\000"
 935      73697A65 
 935      203D3D20 
 935      3000
 936 0136 0000     		.align	2
 937              	.LC15:
 938 0138 70726576 		.ascii	"prev_seg != NULL\000"
 938      5F736567 
 938      20213D20 
 938      4E554C4C 
 938      00
 939 0149 000000   		.align	2
 940              	.LC16:
 941 014c 7463705F 		.ascii	"tcp_write: cannot concatenate when pcb->unsent is e"
ARM GAS  /tmp/ccG0FHgO.s 			page 46


 941      77726974 
 941      653A2063 
 941      616E6E6F 
 941      7420636F 
 942 017f 6D707479 		.ascii	"mpty\000"
 942      00
 943              		.align	2
 944              	.LC17:
 945 0184 7463705F 		.ascii	"tcp_write: extension of reference requires referenc"
 945      77726974 
 945      653A2065 
 945      7874656E 
 945      73696F6E 
 946 01b7 6500     		.ascii	"e\000"
 947 01b9 000000   		.align	2
 948              	.LC18:
 949 01bc 7463705F 		.ascii	"tcp_write: valid queue length\000"
 949      77726974 
 949      653A2076 
 949      616C6964 
 949      20717565 
 950              		.section	.text.tcp_write,"ax",%progbits
 951              		.align	1
 952              		.global	tcp_write
 953              		.syntax unified
 954              		.thumb
 955              		.thumb_func
 957              	tcp_write:
 958              	.LVL88:
 959              	.LFB102:
 369:Middlewares/Third_Party/LwIP/src/core/tcp_out.c ****   struct pbuf *concat_p = NULL;
 960              		.loc 1 369 1 is_stmt 1 view -0
 961              		.cfi_startproc
 962              		@ args = 0, pretend = 0, frame = 48
 963              		@ frame_needed = 0, uses_anonymous_args = 0
 369:Middlewares/Third_Party/LwIP/src/core/tcp_out.c ****   struct pbuf *concat_p = NULL;
 964              		.loc 1 369 1 is_stmt 0 view .LVU289
 965 0000 2DE9F04F 		push	{r4, r5, r6, r7, r8, r9, r10, fp, lr}
 966              	.LCFI8:
 967              		.cfi_def_cfa_offset 36
 968              		.cfi_offset 4, -36
 969              		.cfi_offset 5, -32
 970              		.cfi_offset 6, -28
 971              		.cfi_offset 7, -24
 972              		.cfi_offset 8, -20
 973              		.cfi_offset 9, -16
 974              		.cfi_offset 10, -12
 975              		.cfi_offset 11, -8
 976              		.cfi_offset 14, -4
 977 0004 91B0     		sub	sp, sp, #68
 978              	.LCFI9:
 979              		.cfi_def_cfa_offset 104
 980 0006 8046     		mov	r8, r0
 981 0008 0891     		str	r1, [sp, #32]
 982 000a 9246     		mov	r10, r2
 983 000c 0793     		str	r3, [sp, #28]
 370:Middlewares/Third_Party/LwIP/src/core/tcp_out.c ****   struct tcp_seg *last_unsent = NULL, *seg = NULL, *prev_seg = NULL, *queue = NULL;
ARM GAS  /tmp/ccG0FHgO.s 			page 47


 984              		.loc 1 370 3 is_stmt 1 view .LVU290
 985              	.LVL89:
 371:Middlewares/Third_Party/LwIP/src/core/tcp_out.c ****   u16_t pos = 0; /* position in 'arg' data */
 986              		.loc 1 371 3 view .LVU291
 372:Middlewares/Third_Party/LwIP/src/core/tcp_out.c ****   u16_t queuelen;
 987              		.loc 1 372 3 view .LVU292
 373:Middlewares/Third_Party/LwIP/src/core/tcp_out.c ****   u8_t optlen = 0;
 988              		.loc 1 373 3 view .LVU293
 374:Middlewares/Third_Party/LwIP/src/core/tcp_out.c ****   u8_t optflags = 0;
 989              		.loc 1 374 3 view .LVU294
 375:Middlewares/Third_Party/LwIP/src/core/tcp_out.c **** #if TCP_OVERSIZE
 990              		.loc 1 375 3 view .LVU295
 377:Middlewares/Third_Party/LwIP/src/core/tcp_out.c ****   u16_t oversize_used = 0;
 991              		.loc 1 377 3 view .LVU296
 377:Middlewares/Third_Party/LwIP/src/core/tcp_out.c ****   u16_t oversize_used = 0;
 992              		.loc 1 377 9 is_stmt 0 view .LVU297
 993 000e 0023     		movs	r3, #0
 994              	.LVL90:
 377:Middlewares/Third_Party/LwIP/src/core/tcp_out.c ****   u16_t oversize_used = 0;
 995              		.loc 1 377 9 view .LVU298
 996 0010 ADF83E30 		strh	r3, [sp, #62]	@ movhi
 378:Middlewares/Third_Party/LwIP/src/core/tcp_out.c **** #if TCP_OVERSIZE_DBGCHECK
 997              		.loc 1 378 3 is_stmt 1 view .LVU299
 998              	.LVL91:
 383:Middlewares/Third_Party/LwIP/src/core/tcp_out.c **** #if TCP_CHECKSUM_ON_COPY
 999              		.loc 1 383 3 view .LVU300
 389:Middlewares/Third_Party/LwIP/src/core/tcp_out.c ****   /* don't allocate segments bigger than half the maximum window we ever received */
 1000              		.loc 1 389 3 view .LVU301
 391:Middlewares/Third_Party/LwIP/src/core/tcp_out.c ****   mss_local = mss_local ? mss_local : pcb->mss;
 1001              		.loc 1 391 3 view .LVU302
 391:Middlewares/Third_Party/LwIP/src/core/tcp_out.c ****   mss_local = mss_local ? mss_local : pcb->mss;
 1002              		.loc 1 391 21 is_stmt 0 view .LVU303
 1003 0014 B0F85E30 		ldrh	r3, [r0, #94]
 1004 0018 5B08     		lsrs	r3, r3, #1
 1005 001a B0F832B0 		ldrh	fp, [r0, #50]
 391:Middlewares/Third_Party/LwIP/src/core/tcp_out.c ****   mss_local = mss_local ? mss_local : pcb->mss;
 1006              		.loc 1 391 9 view .LVU304
 1007 001e 5B45     		cmp	r3, fp
 1008 0020 28BF     		it	cs
 1009 0022 5B46     		movcs	r3, fp
 1010              	.LVL92:
 392:Middlewares/Third_Party/LwIP/src/core/tcp_out.c **** 
 1011              		.loc 1 392 3 is_stmt 1 view .LVU305
 392:Middlewares/Third_Party/LwIP/src/core/tcp_out.c **** 
 1012              		.loc 1 392 13 is_stmt 0 view .LVU306
 1013 0024 03B1     		cbz	r3, .L68
 1014 0026 9B46     		mov	fp, r3
 1015              	.L68:
 1016              	.LVL93:
 400:Middlewares/Third_Party/LwIP/src/core/tcp_out.c ****   LWIP_ERROR("tcp_write: arg == NULL (programmer violates API)",
 1017              		.loc 1 400 45 is_stmt 1 discriminator 4 view .LVU307
 401:Middlewares/Third_Party/LwIP/src/core/tcp_out.c ****              arg != NULL, return ERR_ARG;);
 1018              		.loc 1 401 3 discriminator 4 view .LVU308
 401:Middlewares/Third_Party/LwIP/src/core/tcp_out.c ****              arg != NULL, return ERR_ARG;);
 1019              		.loc 1 401 3 discriminator 4 view .LVU309
 1020 0028 089B     		ldr	r3, [sp, #32]
 1021 002a 002B     		cmp	r3, #0
ARM GAS  /tmp/ccG0FHgO.s 			page 48


 1022 002c 43D0     		beq	.L125
 401:Middlewares/Third_Party/LwIP/src/core/tcp_out.c ****              arg != NULL, return ERR_ARG;);
 1023              		.loc 1 401 3 discriminator 2 view .LVU310
 401:Middlewares/Third_Party/LwIP/src/core/tcp_out.c ****              arg != NULL, return ERR_ARG;);
 1024              		.loc 1 401 3 discriminator 2 view .LVU311
 404:Middlewares/Third_Party/LwIP/src/core/tcp_out.c ****   if (err != ERR_OK) {
 1025              		.loc 1 404 3 discriminator 2 view .LVU312
 404:Middlewares/Third_Party/LwIP/src/core/tcp_out.c ****   if (err != ERR_OK) {
 1026              		.loc 1 404 9 is_stmt 0 discriminator 2 view .LVU313
 1027 002e 5146     		mov	r1, r10
 1028              	.LVL94:
 404:Middlewares/Third_Party/LwIP/src/core/tcp_out.c ****   if (err != ERR_OK) {
 1029              		.loc 1 404 9 discriminator 2 view .LVU314
 1030 0030 4046     		mov	r0, r8
 1031              	.LVL95:
 404:Middlewares/Third_Party/LwIP/src/core/tcp_out.c ****   if (err != ERR_OK) {
 1032              		.loc 1 404 9 discriminator 2 view .LVU315
 1033 0032 FFF7FEFF 		bl	tcp_write_checks
 1034              	.LVL96:
 405:Middlewares/Third_Party/LwIP/src/core/tcp_out.c ****     return err;
 1035              		.loc 1 405 3 is_stmt 1 discriminator 2 view .LVU316
 405:Middlewares/Third_Party/LwIP/src/core/tcp_out.c ****     return err;
 1036              		.loc 1 405 6 is_stmt 0 discriminator 2 view .LVU317
 1037 0036 0A90     		str	r0, [sp, #40]
 1038 0038 0028     		cmp	r0, #0
 1039 003a 40F08C81 		bne	.L70
 408:Middlewares/Third_Party/LwIP/src/core/tcp_out.c **** 
 1040              		.loc 1 408 3 is_stmt 1 view .LVU318
 408:Middlewares/Third_Party/LwIP/src/core/tcp_out.c **** 
 1041              		.loc 1 408 12 is_stmt 0 view .LVU319
 1042 003e B8F86260 		ldrh	r6, [r8, #98]
 1043              	.LVL97:
 445:Middlewares/Third_Party/LwIP/src/core/tcp_out.c ****     u16_t space;
 1044              		.loc 1 445 3 is_stmt 1 view .LVU320
 445:Middlewares/Third_Party/LwIP/src/core/tcp_out.c ****     u16_t space;
 1045              		.loc 1 445 10 is_stmt 0 view .LVU321
 1046 0042 D8F86890 		ldr	r9, [r8, #104]
 445:Middlewares/Third_Party/LwIP/src/core/tcp_out.c ****     u16_t space;
 1047              		.loc 1 445 6 view .LVU322
 1048 0046 B9F1000F 		cmp	r9, #0
 1049 004a 00F0CB80 		beq	.L71
 1050 004e 4B46     		mov	r3, r9
 1051              	.LVL98:
 1052              	.L72:
 1053              	.LBB3:
 450:Middlewares/Third_Party/LwIP/src/core/tcp_out.c ****          last_unsent = last_unsent->next);
 1054              		.loc 1 450 37 is_stmt 1 discriminator 1 view .LVU323
 1055 0050 0993     		str	r3, [sp, #36]
 450:Middlewares/Third_Party/LwIP/src/core/tcp_out.c ****          last_unsent = last_unsent->next);
 1056              		.loc 1 450 48 is_stmt 0 discriminator 1 view .LVU324
 1057 0052 1B68     		ldr	r3, [r3]
 1058              	.LVL99:
 450:Middlewares/Third_Party/LwIP/src/core/tcp_out.c ****          last_unsent = last_unsent->next);
 1059              		.loc 1 450 5 discriminator 1 view .LVU325
 1060 0054 002B     		cmp	r3, #0
 1061 0056 FBD1     		bne	.L72
 454:Middlewares/Third_Party/LwIP/src/core/tcp_out.c ****     LWIP_ASSERT("mss_local is too small", mss_local >= last_unsent->len + unsent_optlen);
ARM GAS  /tmp/ccG0FHgO.s 			page 49


 1062              		.loc 1 454 21 view .LVU326
 1063 0058 9946     		mov	r9, r3
 454:Middlewares/Third_Party/LwIP/src/core/tcp_out.c ****     LWIP_ASSERT("mss_local is too small", mss_local >= last_unsent->len + unsent_optlen);
 1064              		.loc 1 454 5 is_stmt 1 view .LVU327
 454:Middlewares/Third_Party/LwIP/src/core/tcp_out.c ****     LWIP_ASSERT("mss_local is too small", mss_local >= last_unsent->len + unsent_optlen);
 1065              		.loc 1 454 21 is_stmt 0 view .LVU328
 1066 005a 099B     		ldr	r3, [sp, #36]
 1067 005c 9C7A     		ldrb	r4, [r3, #10]	@ zero_extendqisi2
 1068 005e A400     		lsls	r4, r4, #2
 454:Middlewares/Third_Party/LwIP/src/core/tcp_out.c ****     LWIP_ASSERT("mss_local is too small", mss_local >= last_unsent->len + unsent_optlen);
 1069              		.loc 1 454 19 view .LVU329
 1070 0060 04F00404 		and	r4, r4, #4
 1071              	.LVL100:
 455:Middlewares/Third_Party/LwIP/src/core/tcp_out.c ****     space = mss_local - (last_unsent->len + unsent_optlen);
 1072              		.loc 1 455 5 is_stmt 1 view .LVU330
 455:Middlewares/Third_Party/LwIP/src/core/tcp_out.c ****     space = mss_local - (last_unsent->len + unsent_optlen);
 1073              		.loc 1 455 5 view .LVU331
 1074 0064 1B89     		ldrh	r3, [r3, #8]
 1075 0066 2344     		add	r3, r3, r4
 1076 0068 9B45     		cmp	fp, r3
 1077 006a 2FDB     		blt	.L126
 1078              	.LVL101:
 1079              	.L73:
 455:Middlewares/Third_Party/LwIP/src/core/tcp_out.c ****     space = mss_local - (last_unsent->len + unsent_optlen);
 1080              		.loc 1 455 5 discriminator 3 view .LVU332
 455:Middlewares/Third_Party/LwIP/src/core/tcp_out.c ****     space = mss_local - (last_unsent->len + unsent_optlen);
 1081              		.loc 1 455 5 discriminator 3 view .LVU333
 456:Middlewares/Third_Party/LwIP/src/core/tcp_out.c **** 
 1082              		.loc 1 456 5 discriminator 3 view .LVU334
 456:Middlewares/Third_Party/LwIP/src/core/tcp_out.c **** 
 1083              		.loc 1 456 37 is_stmt 0 discriminator 3 view .LVU335
 1084 006c 099B     		ldr	r3, [sp, #36]
 1085 006e 1B89     		ldrh	r3, [r3, #8]
 456:Middlewares/Third_Party/LwIP/src/core/tcp_out.c **** 
 1086              		.loc 1 456 43 discriminator 3 view .LVU336
 1087 0070 1C44     		add	r4, r4, r3
 1088              	.LVL102:
 456:Middlewares/Third_Party/LwIP/src/core/tcp_out.c **** 
 1089              		.loc 1 456 43 discriminator 3 view .LVU337
 1090 0072 A4B2     		uxth	r4, r4
 456:Middlewares/Third_Party/LwIP/src/core/tcp_out.c **** 
 1091              		.loc 1 456 11 discriminator 3 view .LVU338
 1092 0074 ABEB0404 		sub	r4, fp, r4
 1093 0078 A2B2     		uxth	r2, r4
 1094 007a 0C92     		str	r2, [sp, #48]
 1095              	.LVL103:
 471:Middlewares/Third_Party/LwIP/src/core/tcp_out.c ****     if (oversize > 0) {
 1096              		.loc 1 471 5 is_stmt 1 discriminator 3 view .LVU339
 471:Middlewares/Third_Party/LwIP/src/core/tcp_out.c ****     if (oversize > 0) {
 1097              		.loc 1 471 19 is_stmt 0 discriminator 3 view .LVU340
 1098 007c B8F86430 		ldrh	r3, [r8, #100]
 1099 0080 0B93     		str	r3, [sp, #44]
 471:Middlewares/Third_Party/LwIP/src/core/tcp_out.c ****     if (oversize > 0) {
 1100              		.loc 1 471 14 discriminator 3 view .LVU341
 1101 0082 ADF83E30 		strh	r3, [sp, #62]	@ movhi
 472:Middlewares/Third_Party/LwIP/src/core/tcp_out.c ****       LWIP_ASSERT("inconsistent oversize vs. space", oversize <= space);
 1102              		.loc 1 472 5 is_stmt 1 discriminator 3 view .LVU342
ARM GAS  /tmp/ccG0FHgO.s 			page 50


 472:Middlewares/Third_Party/LwIP/src/core/tcp_out.c ****       LWIP_ASSERT("inconsistent oversize vs. space", oversize <= space);
 1103              		.loc 1 472 8 is_stmt 0 discriminator 3 view .LVU343
 1104 0086 002B     		cmp	r3, #0
 1105 0088 30D0     		beq	.L109
 473:Middlewares/Third_Party/LwIP/src/core/tcp_out.c ****       seg = last_unsent;
 1106              		.loc 1 473 7 is_stmt 1 view .LVU344
 473:Middlewares/Third_Party/LwIP/src/core/tcp_out.c ****       seg = last_unsent;
 1107              		.loc 1 473 7 view .LVU345
 1108 008a 9342     		cmp	r3, r2
 1109 008c 26D8     		bhi	.L127
 1110              	.LVL104:
 1111              	.L75:
 473:Middlewares/Third_Party/LwIP/src/core/tcp_out.c ****       seg = last_unsent;
 1112              		.loc 1 473 7 discriminator 3 view .LVU346
 473:Middlewares/Third_Party/LwIP/src/core/tcp_out.c ****       seg = last_unsent;
 1113              		.loc 1 473 7 discriminator 3 view .LVU347
 474:Middlewares/Third_Party/LwIP/src/core/tcp_out.c ****       oversize_used = LWIP_MIN(space, LWIP_MIN(oversize, len));
 1114              		.loc 1 474 7 discriminator 3 view .LVU348
 475:Middlewares/Third_Party/LwIP/src/core/tcp_out.c ****       pos += oversize_used;
 1115              		.loc 1 475 7 discriminator 3 view .LVU349
 475:Middlewares/Third_Party/LwIP/src/core/tcp_out.c ****       pos += oversize_used;
 1116              		.loc 1 475 23 is_stmt 0 discriminator 3 view .LVU350
 1117 008e BDF83E30 		ldrh	r3, [sp, #62]
 1118 0092 1A46     		mov	r2, r3
 1119 0094 5345     		cmp	r3, r10
 1120 0096 28BF     		it	cs
 1121 0098 5246     		movcs	r2, r10
 475:Middlewares/Third_Party/LwIP/src/core/tcp_out.c ****       pos += oversize_used;
 1122              		.loc 1 475 21 discriminator 3 view .LVU351
 1123 009a 0C99     		ldr	r1, [sp, #48]
 1124 009c 8A42     		cmp	r2, r1
 1125 009e 28BF     		it	cs
 1126 00a0 0A46     		movcs	r2, r1
 1127 00a2 92B2     		uxth	r2, r2
 1128 00a4 0B92     		str	r2, [sp, #44]
 1129              	.LVL105:
 476:Middlewares/Third_Party/LwIP/src/core/tcp_out.c ****       oversize -= oversize_used;
 1130              		.loc 1 476 7 is_stmt 1 discriminator 3 view .LVU352
 477:Middlewares/Third_Party/LwIP/src/core/tcp_out.c ****       space -= oversize_used;
 1131              		.loc 1 477 7 discriminator 3 view .LVU353
 477:Middlewares/Third_Party/LwIP/src/core/tcp_out.c ****       space -= oversize_used;
 1132              		.loc 1 477 16 is_stmt 0 discriminator 3 view .LVU354
 1133 00a6 9B1A     		subs	r3, r3, r2
 1134 00a8 ADF83E30 		strh	r3, [sp, #62]	@ movhi
 478:Middlewares/Third_Party/LwIP/src/core/tcp_out.c ****     }
 1135              		.loc 1 478 7 is_stmt 1 discriminator 3 view .LVU355
 478:Middlewares/Third_Party/LwIP/src/core/tcp_out.c ****     }
 1136              		.loc 1 478 13 is_stmt 0 discriminator 3 view .LVU356
 1137 00ac 8B1A     		subs	r3, r1, r2
 1138 00ae 9BB2     		uxth	r3, r3
 1139 00b0 0C93     		str	r3, [sp, #48]
 1140              	.LVL106:
 474:Middlewares/Third_Party/LwIP/src/core/tcp_out.c ****       oversize_used = LWIP_MIN(space, LWIP_MIN(oversize, len));
 1141              		.loc 1 474 11 discriminator 3 view .LVU357
 1142 00b2 099F     		ldr	r7, [sp, #36]
 1143 00b4 1BE0     		b	.L74
 1144              	.LVL107:
ARM GAS  /tmp/ccG0FHgO.s 			page 51


 1145              	.L125:
 474:Middlewares/Third_Party/LwIP/src/core/tcp_out.c ****       oversize_used = LWIP_MIN(space, LWIP_MIN(oversize, len));
 1146              		.loc 1 474 11 discriminator 3 view .LVU358
 1147              	.LBE3:
 401:Middlewares/Third_Party/LwIP/src/core/tcp_out.c ****              arg != NULL, return ERR_ARG;);
 1148              		.loc 1 401 3 is_stmt 1 discriminator 1 view .LVU359
 401:Middlewares/Third_Party/LwIP/src/core/tcp_out.c ****              arg != NULL, return ERR_ARG;);
 1149              		.loc 1 401 3 discriminator 1 view .LVU360
 1150 00b6 AF4B     		ldr	r3, .L144
 1151 00b8 40F29112 		movw	r2, #401
 1152              	.LVL108:
 401:Middlewares/Third_Party/LwIP/src/core/tcp_out.c ****              arg != NULL, return ERR_ARG;);
 1153              		.loc 1 401 3 is_stmt 0 discriminator 1 view .LVU361
 1154 00bc AE49     		ldr	r1, .L144+4
 1155              	.LVL109:
 401:Middlewares/Third_Party/LwIP/src/core/tcp_out.c ****              arg != NULL, return ERR_ARG;);
 1156              		.loc 1 401 3 discriminator 1 view .LVU362
 1157 00be AF48     		ldr	r0, .L144+8
 1158              	.LVL110:
 401:Middlewares/Third_Party/LwIP/src/core/tcp_out.c ****              arg != NULL, return ERR_ARG;);
 1159              		.loc 1 401 3 discriminator 1 view .LVU363
 1160 00c0 FFF7FEFF 		bl	printf
 1161              	.LVL111:
 401:Middlewares/Third_Party/LwIP/src/core/tcp_out.c ****              arg != NULL, return ERR_ARG;);
 1162              		.loc 1 401 3 is_stmt 1 discriminator 1 view .LVU364
 401:Middlewares/Third_Party/LwIP/src/core/tcp_out.c ****              arg != NULL, return ERR_ARG;);
 1163              		.loc 1 401 3 discriminator 1 view .LVU365
 1164 00c4 6FF00F03 		mvn	r3, #15
 1165 00c8 0A93     		str	r3, [sp, #40]
 1166 00ca 44E1     		b	.L70
 1167              	.LVL112:
 1168              	.L126:
 1169              	.LBB10:
 455:Middlewares/Third_Party/LwIP/src/core/tcp_out.c ****     space = mss_local - (last_unsent->len + unsent_optlen);
 1170              		.loc 1 455 5 discriminator 1 view .LVU366
 455:Middlewares/Third_Party/LwIP/src/core/tcp_out.c ****     space = mss_local - (last_unsent->len + unsent_optlen);
 1171              		.loc 1 455 5 discriminator 1 view .LVU367
 1172 00cc A94B     		ldr	r3, .L144
 1173 00ce 40F2C712 		movw	r2, #455
 1174 00d2 AB49     		ldr	r1, .L144+12
 1175 00d4 A948     		ldr	r0, .L144+8
 1176              	.LVL113:
 455:Middlewares/Third_Party/LwIP/src/core/tcp_out.c ****     space = mss_local - (last_unsent->len + unsent_optlen);
 1177              		.loc 1 455 5 is_stmt 0 discriminator 1 view .LVU368
 1178 00d6 FFF7FEFF 		bl	printf
 1179              	.LVL114:
 1180 00da C7E7     		b	.L73
 1181              	.LVL115:
 1182              	.L127:
 473:Middlewares/Third_Party/LwIP/src/core/tcp_out.c ****       seg = last_unsent;
 1183              		.loc 1 473 7 is_stmt 1 discriminator 1 view .LVU369
 473:Middlewares/Third_Party/LwIP/src/core/tcp_out.c ****       seg = last_unsent;
 1184              		.loc 1 473 7 discriminator 1 view .LVU370
 1185 00dc A54B     		ldr	r3, .L144
 1186 00de 40F2D912 		movw	r2, #473
 1187              	.LVL116:
 473:Middlewares/Third_Party/LwIP/src/core/tcp_out.c ****       seg = last_unsent;
ARM GAS  /tmp/ccG0FHgO.s 			page 52


 1188              		.loc 1 473 7 is_stmt 0 discriminator 1 view .LVU371
 1189 00e2 A849     		ldr	r1, .L144+16
 1190 00e4 A548     		ldr	r0, .L144+8
 1191 00e6 FFF7FEFF 		bl	printf
 1192              	.LVL117:
 1193 00ea D0E7     		b	.L75
 1194              	.LVL118:
 1195              	.L109:
 473:Middlewares/Third_Party/LwIP/src/core/tcp_out.c ****       seg = last_unsent;
 1196              		.loc 1 473 7 discriminator 1 view .LVU372
 1197              	.LBE10:
 371:Middlewares/Third_Party/LwIP/src/core/tcp_out.c ****   u16_t pos = 0; /* position in 'arg' data */
 1198              		.loc 1 371 40 view .LVU373
 1199 00ec 4F46     		mov	r7, r9
 1200              	.LVL119:
 1201              	.L74:
 1202              	.LBB11:
 481:Middlewares/Third_Party/LwIP/src/core/tcp_out.c **** #endif /* TCP_OVERSIZE */
 1203              		.loc 1 481 5 is_stmt 1 view .LVU374
 481:Middlewares/Third_Party/LwIP/src/core/tcp_out.c **** #endif /* TCP_OVERSIZE */
 1204              		.loc 1 481 5 view .LVU375
 1205 00ee BDF83E30 		ldrh	r3, [sp, #62]
 1206 00f2 13B1     		cbz	r3, .L76
 481:Middlewares/Third_Party/LwIP/src/core/tcp_out.c **** #endif /* TCP_OVERSIZE */
 1207              		.loc 1 481 5 is_stmt 0 discriminator 1 view .LVU376
 1208 00f4 0B9B     		ldr	r3, [sp, #44]
 1209 00f6 5345     		cmp	r3, r10
 1210 00f8 40D1     		bne	.L128
 1211              	.L76:
 481:Middlewares/Third_Party/LwIP/src/core/tcp_out.c **** #endif /* TCP_OVERSIZE */
 1212              		.loc 1 481 5 is_stmt 1 discriminator 5 view .LVU377
 481:Middlewares/Third_Party/LwIP/src/core/tcp_out.c **** #endif /* TCP_OVERSIZE */
 1213              		.loc 1 481 5 discriminator 5 view .LVU378
 495:Middlewares/Third_Party/LwIP/src/core/tcp_out.c ****       u16_t seglen = LWIP_MIN(space, len - pos);
 1214              		.loc 1 495 5 discriminator 5 view .LVU379
 495:Middlewares/Third_Party/LwIP/src/core/tcp_out.c ****       u16_t seglen = LWIP_MIN(space, len - pos);
 1215              		.loc 1 495 8 is_stmt 0 discriminator 5 view .LVU380
 1216 00fa 0B99     		ldr	r1, [sp, #44]
 1217 00fc 5145     		cmp	r1, r10
 1218 00fe 80F04F81 		bcs	.L110
 495:Middlewares/Third_Party/LwIP/src/core/tcp_out.c ****       u16_t seglen = LWIP_MIN(space, len - pos);
 1219              		.loc 1 495 21 discriminator 1 view .LVU381
 1220 0102 0C9A     		ldr	r2, [sp, #48]
 1221 0104 002A     		cmp	r2, #0
 1222 0106 00F05481 		beq	.L111
 495:Middlewares/Third_Party/LwIP/src/core/tcp_out.c ****       u16_t seglen = LWIP_MIN(space, len - pos);
 1223              		.loc 1 495 51 discriminator 2 view .LVU382
 1224 010a 099B     		ldr	r3, [sp, #36]
 1225 010c 1B89     		ldrh	r3, [r3, #8]
 495:Middlewares/Third_Party/LwIP/src/core/tcp_out.c ****       u16_t seglen = LWIP_MIN(space, len - pos);
 1226              		.loc 1 495 36 discriminator 2 view .LVU383
 1227 010e 002B     		cmp	r3, #0
 1228 0110 00F05181 		beq	.L112
 1229              	.LBB4:
 496:Middlewares/Third_Party/LwIP/src/core/tcp_out.c ****       seg = last_unsent;
 1230              		.loc 1 496 7 is_stmt 1 view .LVU384
 496:Middlewares/Third_Party/LwIP/src/core/tcp_out.c ****       seg = last_unsent;
ARM GAS  /tmp/ccG0FHgO.s 			page 53


 1231              		.loc 1 496 22 is_stmt 0 view .LVU385
 1232 0114 AAEB0104 		sub	r4, r10, r1
 1233 0118 9442     		cmp	r4, r2
 1234 011a A8BF     		it	ge
 1235 011c 1446     		movge	r4, r2
 496:Middlewares/Third_Party/LwIP/src/core/tcp_out.c ****       seg = last_unsent;
 1236              		.loc 1 496 13 view .LVU386
 1237 011e A5B2     		uxth	r5, r4
 1238              	.LVL120:
 497:Middlewares/Third_Party/LwIP/src/core/tcp_out.c **** 
 1239              		.loc 1 497 7 is_stmt 1 view .LVU387
 502:Middlewares/Third_Party/LwIP/src/core/tcp_out.c ****         /* Data is copied */
 1240              		.loc 1 502 7 view .LVU388
 502:Middlewares/Third_Party/LwIP/src/core/tcp_out.c ****         /* Data is copied */
 1241              		.loc 1 502 10 is_stmt 0 view .LVU389
 1242 0120 079B     		ldr	r3, [sp, #28]
 1243 0122 13F0010F 		tst	r3, #1
 1244 0126 31D1     		bne	.L129
 1245              	.LBB5:
 521:Middlewares/Third_Party/LwIP/src/core/tcp_out.c ****         for (p = last_unsent->p; p->next != NULL; p = p->next);
 1246              		.loc 1 521 9 is_stmt 1 view .LVU390
 522:Middlewares/Third_Party/LwIP/src/core/tcp_out.c ****         if (p->type == PBUF_ROM && (const u8_t *)p->payload + p->len == (const u8_t *)arg) {
 1247              		.loc 1 522 9 view .LVU391
 522:Middlewares/Third_Party/LwIP/src/core/tcp_out.c ****         if (p->type == PBUF_ROM && (const u8_t *)p->payload + p->len == (const u8_t *)arg) {
 1248              		.loc 1 522 16 is_stmt 0 view .LVU392
 1249 0128 099B     		ldr	r3, [sp, #36]
 1250 012a D3F80490 		ldr	r9, [r3, #4]
 1251              	.LVL121:
 522:Middlewares/Third_Party/LwIP/src/core/tcp_out.c ****         if (p->type == PBUF_ROM && (const u8_t *)p->payload + p->len == (const u8_t *)arg) {
 1252              		.loc 1 522 16 view .LVU393
 1253 012e 4A46     		mov	r2, r9
 1254              	.LVL122:
 1255              	.L81:
 522:Middlewares/Third_Party/LwIP/src/core/tcp_out.c ****         if (p->type == PBUF_ROM && (const u8_t *)p->payload + p->len == (const u8_t *)arg) {
 1256              		.loc 1 522 34 is_stmt 1 discriminator 1 view .LVU394
 1257 0130 1346     		mov	r3, r2
 522:Middlewares/Third_Party/LwIP/src/core/tcp_out.c ****         if (p->type == PBUF_ROM && (const u8_t *)p->payload + p->len == (const u8_t *)arg) {
 1258              		.loc 1 522 35 is_stmt 0 discriminator 1 view .LVU395
 1259 0132 1268     		ldr	r2, [r2]
 1260              	.LVL123:
 522:Middlewares/Third_Party/LwIP/src/core/tcp_out.c ****         if (p->type == PBUF_ROM && (const u8_t *)p->payload + p->len == (const u8_t *)arg) {
 1261              		.loc 1 522 9 discriminator 1 view .LVU396
 1262 0134 002A     		cmp	r2, #0
 1263 0136 FBD1     		bne	.L81
 523:Middlewares/Third_Party/LwIP/src/core/tcp_out.c ****           LWIP_ASSERT("tcp_write: ROM pbufs cannot be oversized", pos == 0);
 1264              		.loc 1 523 14 view .LVU397
 1265 0138 9146     		mov	r9, r2
 523:Middlewares/Third_Party/LwIP/src/core/tcp_out.c ****           LWIP_ASSERT("tcp_write: ROM pbufs cannot be oversized", pos == 0);
 1266              		.loc 1 523 9 is_stmt 1 view .LVU398
 523:Middlewares/Third_Party/LwIP/src/core/tcp_out.c ****           LWIP_ASSERT("tcp_write: ROM pbufs cannot be oversized", pos == 0);
 1267              		.loc 1 523 14 is_stmt 0 view .LVU399
 1268 013a 1A7B     		ldrb	r2, [r3, #12]	@ zero_extendqisi2
 523:Middlewares/Third_Party/LwIP/src/core/tcp_out.c ****           LWIP_ASSERT("tcp_write: ROM pbufs cannot be oversized", pos == 0);
 1269              		.loc 1 523 12 view .LVU400
 1270 013c 012A     		cmp	r2, #1
 1271 013e 05D1     		bne	.L82
 523:Middlewares/Third_Party/LwIP/src/core/tcp_out.c ****           LWIP_ASSERT("tcp_write: ROM pbufs cannot be oversized", pos == 0);
ARM GAS  /tmp/ccG0FHgO.s 			page 54


 1272              		.loc 1 523 51 discriminator 1 view .LVU401
 1273 0140 5A68     		ldr	r2, [r3, #4]
 523:Middlewares/Third_Party/LwIP/src/core/tcp_out.c ****           LWIP_ASSERT("tcp_write: ROM pbufs cannot be oversized", pos == 0);
 1274              		.loc 1 523 64 discriminator 1 view .LVU402
 1275 0142 5B89     		ldrh	r3, [r3, #10]
 1276              	.LVL124:
 523:Middlewares/Third_Party/LwIP/src/core/tcp_out.c ****           LWIP_ASSERT("tcp_write: ROM pbufs cannot be oversized", pos == 0);
 1277              		.loc 1 523 61 discriminator 1 view .LVU403
 1278 0144 1344     		add	r3, r3, r2
 523:Middlewares/Third_Party/LwIP/src/core/tcp_out.c ****           LWIP_ASSERT("tcp_write: ROM pbufs cannot be oversized", pos == 0);
 1279              		.loc 1 523 33 discriminator 1 view .LVU404
 1280 0146 089A     		ldr	r2, [sp, #32]
 1281 0148 9342     		cmp	r3, r2
 1282 014a 3ED0     		beq	.L130
 1283              	.L82:
 527:Middlewares/Third_Party/LwIP/src/core/tcp_out.c ****             LWIP_DEBUGF(TCP_OUTPUT_DEBUG | LWIP_DBG_LEVEL_SERIOUS,
 1284              		.loc 1 527 11 is_stmt 1 view .LVU405
 527:Middlewares/Third_Party/LwIP/src/core/tcp_out.c ****             LWIP_DEBUGF(TCP_OUTPUT_DEBUG | LWIP_DBG_LEVEL_SERIOUS,
 1285              		.loc 1 527 27 is_stmt 0 view .LVU406
 1286 014c 0122     		movs	r2, #1
 1287 014e 2946     		mov	r1, r5
 1288 0150 0420     		movs	r0, #4
 1289 0152 FFF7FEFF 		bl	pbuf_alloc
 1290              	.LVL125:
 527:Middlewares/Third_Party/LwIP/src/core/tcp_out.c ****             LWIP_DEBUGF(TCP_OUTPUT_DEBUG | LWIP_DBG_LEVEL_SERIOUS,
 1291              		.loc 1 527 14 view .LVU407
 1292 0156 8146     		mov	r9, r0
 1293 0158 0028     		cmp	r0, #0
 1294 015a 00F0D081 		beq	.L115
 533:Middlewares/Third_Party/LwIP/src/core/tcp_out.c ****           queuelen += pbuf_clen(concat_p);
 1295              		.loc 1 533 11 is_stmt 1 view .LVU408
 533:Middlewares/Third_Party/LwIP/src/core/tcp_out.c ****           queuelen += pbuf_clen(concat_p);
 1296              		.loc 1 533 68 is_stmt 0 view .LVU409
 1297 015e 089B     		ldr	r3, [sp, #32]
 1298 0160 0B9A     		ldr	r2, [sp, #44]
 1299 0162 1344     		add	r3, r3, r2
 533:Middlewares/Third_Party/LwIP/src/core/tcp_out.c ****           queuelen += pbuf_clen(concat_p);
 1300              		.loc 1 533 49 view .LVU410
 1301 0164 4360     		str	r3, [r0, #4]
 534:Middlewares/Third_Party/LwIP/src/core/tcp_out.c ****         }
 1302              		.loc 1 534 11 is_stmt 1 view .LVU411
 534:Middlewares/Third_Party/LwIP/src/core/tcp_out.c ****         }
 1303              		.loc 1 534 23 is_stmt 0 view .LVU412
 1304 0166 FFF7FEFF 		bl	pbuf_clen
 1305              	.LVL126:
 534:Middlewares/Third_Party/LwIP/src/core/tcp_out.c ****         }
 1306              		.loc 1 534 20 view .LVU413
 1307 016a 0644     		add	r6, r6, r0
 1308              	.LVL127:
 534:Middlewares/Third_Party/LwIP/src/core/tcp_out.c ****         }
 1309              		.loc 1 534 20 view .LVU414
 1310 016c B6B2     		uxth	r6, r6
 1311              	.LVL128:
 534:Middlewares/Third_Party/LwIP/src/core/tcp_out.c ****         }
 1312              		.loc 1 534 20 view .LVU415
 1313              	.LBE5:
 1314              	.LBE4:
ARM GAS  /tmp/ccG0FHgO.s 			page 55


 1315              	.LBE11:
 383:Middlewares/Third_Party/LwIP/src/core/tcp_out.c **** #if TCP_CHECKSUM_ON_COPY
 1316              		.loc 1 383 9 view .LVU416
 1317 016e 0023     		movs	r3, #0
 1318 0170 0C93     		str	r3, [sp, #48]
 1319              	.LVL129:
 1320              	.L80:
 1321              	.LBB12:
 1322              	.LBB7:
 544:Middlewares/Third_Party/LwIP/src/core/tcp_out.c ****     }
 1323              		.loc 1 544 7 is_stmt 1 view .LVU417
 544:Middlewares/Third_Party/LwIP/src/core/tcp_out.c ****     }
 1324              		.loc 1 544 11 is_stmt 0 view .LVU418
 1325 0172 0B9B     		ldr	r3, [sp, #44]
 1326 0174 5C19     		adds	r4, r3, r5
 1327 0176 A4B2     		uxth	r4, r4
 1328              	.LVL130:
 497:Middlewares/Third_Party/LwIP/src/core/tcp_out.c **** 
 1329              		.loc 1 497 11 view .LVU419
 1330 0178 099F     		ldr	r7, [sp, #36]
 1331 017a 14E1     		b	.L77
 1332              	.LVL131:
 1333              	.L128:
 497:Middlewares/Third_Party/LwIP/src/core/tcp_out.c **** 
 1334              		.loc 1 497 11 view .LVU420
 1335              	.LBE7:
 481:Middlewares/Third_Party/LwIP/src/core/tcp_out.c **** #endif /* TCP_OVERSIZE */
 1336              		.loc 1 481 5 is_stmt 1 discriminator 3 view .LVU421
 481:Middlewares/Third_Party/LwIP/src/core/tcp_out.c **** #endif /* TCP_OVERSIZE */
 1337              		.loc 1 481 5 discriminator 3 view .LVU422
 1338 017c 7D4B     		ldr	r3, .L144
 1339 017e 40F2E112 		movw	r2, #481
 1340 0182 8149     		ldr	r1, .L144+20
 1341 0184 7D48     		ldr	r0, .L144+8
 1342 0186 FFF7FEFF 		bl	printf
 1343              	.LVL132:
 1344 018a B6E7     		b	.L76
 1345              	.LVL133:
 1346              	.L129:
 1347              	.LBB8:
 504:Middlewares/Third_Party/LwIP/src/core/tcp_out.c ****           LWIP_DEBUGF(TCP_OUTPUT_DEBUG | LWIP_DBG_LEVEL_SERIOUS,
 1348              		.loc 1 504 9 view .LVU423
 504:Middlewares/Third_Party/LwIP/src/core/tcp_out.c ****           LWIP_DEBUGF(TCP_OUTPUT_DEBUG | LWIP_DBG_LEVEL_SERIOUS,
 1349              		.loc 1 504 25 is_stmt 0 view .LVU424
 1350 018c 0123     		movs	r3, #1
 1351 018e 0293     		str	r3, [sp, #8]
 1352 0190 079B     		ldr	r3, [sp, #28]
 1353 0192 0193     		str	r3, [sp, #4]
 1354 0194 CDF80080 		str	r8, [sp]
 1355 0198 0DF13E03 		add	r3, sp, #62
 1356 019c 2946     		mov	r1, r5
 1357 019e 0420     		movs	r0, #4
 1358 01a0 FFF7FEFF 		bl	tcp_pbuf_prealloc
 1359              	.LVL134:
 504:Middlewares/Third_Party/LwIP/src/core/tcp_out.c ****           LWIP_DEBUGF(TCP_OUTPUT_DEBUG | LWIP_DBG_LEVEL_SERIOUS,
 1360              		.loc 1 504 12 view .LVU425
 1361 01a4 8146     		mov	r9, r0
ARM GAS  /tmp/ccG0FHgO.s 			page 56


 1362 01a6 0028     		cmp	r0, #0
 1363 01a8 00F0A781 		beq	.L113
 513:Middlewares/Third_Party/LwIP/src/core/tcp_out.c **** #if TCP_CHECKSUM_ON_COPY
 1364              		.loc 1 513 9 is_stmt 1 view .LVU426
 1365 01ac 2A46     		mov	r2, r5
 1366 01ae 089B     		ldr	r3, [sp, #32]
 1367 01b0 0B99     		ldr	r1, [sp, #44]
 1368 01b2 5918     		adds	r1, r3, r1
 1369 01b4 4068     		ldr	r0, [r0, #4]
 1370              	.LVL135:
 513:Middlewares/Third_Party/LwIP/src/core/tcp_out.c **** #if TCP_CHECKSUM_ON_COPY
 1371              		.loc 1 513 9 is_stmt 0 view .LVU427
 1372 01b6 FFF7FEFF 		bl	memcpy
 1373              	.LVL136:
 517:Middlewares/Third_Party/LwIP/src/core/tcp_out.c ****       } else {
 1374              		.loc 1 517 9 is_stmt 1 view .LVU428
 517:Middlewares/Third_Party/LwIP/src/core/tcp_out.c ****       } else {
 1375              		.loc 1 517 21 is_stmt 0 view .LVU429
 1376 01ba 4846     		mov	r0, r9
 1377 01bc FFF7FEFF 		bl	pbuf_clen
 1378              	.LVL137:
 517:Middlewares/Third_Party/LwIP/src/core/tcp_out.c ****       } else {
 1379              		.loc 1 517 18 view .LVU430
 1380 01c0 0644     		add	r6, r6, r0
 1381              	.LVL138:
 517:Middlewares/Third_Party/LwIP/src/core/tcp_out.c ****       } else {
 1382              		.loc 1 517 18 view .LVU431
 1383 01c2 B6B2     		uxth	r6, r6
 1384              	.LVL139:
 517:Middlewares/Third_Party/LwIP/src/core/tcp_out.c ****       } else {
 1385              		.loc 1 517 18 view .LVU432
 1386              	.LBE8:
 1387              	.LBE12:
 383:Middlewares/Third_Party/LwIP/src/core/tcp_out.c **** #if TCP_CHECKSUM_ON_COPY
 1388              		.loc 1 383 9 view .LVU433
 1389 01c4 0023     		movs	r3, #0
 1390 01c6 0C93     		str	r3, [sp, #48]
 1391              	.LVL140:
 1392              	.LBB13:
 1393              	.LBB9:
 383:Middlewares/Third_Party/LwIP/src/core/tcp_out.c **** #if TCP_CHECKSUM_ON_COPY
 1394              		.loc 1 383 9 view .LVU434
 1395 01c8 D3E7     		b	.L80
 1396              	.LVL141:
 1397              	.L130:
 1398              	.LBB6:
 524:Middlewares/Third_Party/LwIP/src/core/tcp_out.c ****           extendlen = seglen;
 1399              		.loc 1 524 11 is_stmt 1 view .LVU435
 524:Middlewares/Third_Party/LwIP/src/core/tcp_out.c ****           extendlen = seglen;
 1400              		.loc 1 524 11 view .LVU436
 1401 01ca 0B9B     		ldr	r3, [sp, #44]
 1402 01cc 0BB9     		cbnz	r3, .L131
 525:Middlewares/Third_Party/LwIP/src/core/tcp_out.c ****         } else {
 1403              		.loc 1 525 21 is_stmt 0 view .LVU437
 1404 01ce 0C95     		str	r5, [sp, #48]
 1405              	.LVL142:
 525:Middlewares/Third_Party/LwIP/src/core/tcp_out.c ****         } else {
ARM GAS  /tmp/ccG0FHgO.s 			page 57


 1406              		.loc 1 525 21 view .LVU438
 1407 01d0 CFE7     		b	.L80
 1408              	.LVL143:
 1409              	.L131:
 524:Middlewares/Third_Party/LwIP/src/core/tcp_out.c ****           extendlen = seglen;
 1410              		.loc 1 524 11 is_stmt 1 discriminator 1 view .LVU439
 524:Middlewares/Third_Party/LwIP/src/core/tcp_out.c ****           extendlen = seglen;
 1411              		.loc 1 524 11 discriminator 1 view .LVU440
 1412 01d2 684B     		ldr	r3, .L144
 1413 01d4 4FF40372 		mov	r2, #524
 1414 01d8 6C49     		ldr	r1, .L144+24
 1415 01da 6848     		ldr	r0, .L144+8
 1416 01dc FFF7FEFF 		bl	printf
 1417              	.LVL144:
 525:Middlewares/Third_Party/LwIP/src/core/tcp_out.c ****         } else {
 1418              		.loc 1 525 21 is_stmt 0 discriminator 1 view .LVU441
 1419 01e0 0C95     		str	r5, [sp, #48]
 1420              	.LVL145:
 525:Middlewares/Third_Party/LwIP/src/core/tcp_out.c ****         } else {
 1421              		.loc 1 525 21 discriminator 1 view .LVU442
 1422 01e2 C6E7     		b	.L80
 1423              	.LVL146:
 1424              	.L71:
 525:Middlewares/Third_Party/LwIP/src/core/tcp_out.c ****         } else {
 1425              		.loc 1 525 21 discriminator 1 view .LVU443
 1426              	.LBE6:
 1427              	.LBE9:
 1428              	.LBE13:
 548:Middlewares/Third_Party/LwIP/src/core/tcp_out.c ****                 pcb->unsent_oversize == 0);
 1429              		.loc 1 548 5 is_stmt 1 discriminator 2 view .LVU444
 548:Middlewares/Third_Party/LwIP/src/core/tcp_out.c ****                 pcb->unsent_oversize == 0);
 1430              		.loc 1 548 5 discriminator 2 view .LVU445
 1431 01e4 B8F86440 		ldrh	r4, [r8, #100]
 1432 01e8 2CB9     		cbnz	r4, .L132
 383:Middlewares/Third_Party/LwIP/src/core/tcp_out.c **** #if TCP_CHECKSUM_ON_COPY
 1433              		.loc 1 383 9 is_stmt 0 view .LVU446
 1434 01ea 0C94     		str	r4, [sp, #48]
 378:Middlewares/Third_Party/LwIP/src/core/tcp_out.c **** #if TCP_OVERSIZE_DBGCHECK
 1435              		.loc 1 378 9 view .LVU447
 1436 01ec 0B94     		str	r4, [sp, #44]
 371:Middlewares/Third_Party/LwIP/src/core/tcp_out.c ****   u16_t pos = 0; /* position in 'arg' data */
 1437              		.loc 1 371 40 view .LVU448
 1438 01ee 4F46     		mov	r7, r9
 371:Middlewares/Third_Party/LwIP/src/core/tcp_out.c ****   u16_t pos = 0; /* position in 'arg' data */
 1439              		.loc 1 371 19 view .LVU449
 1440 01f0 CDF82490 		str	r9, [sp, #36]
 1441 01f4 D7E0     		b	.L77
 1442              	.L132:
 548:Middlewares/Third_Party/LwIP/src/core/tcp_out.c ****                 pcb->unsent_oversize == 0);
 1443              		.loc 1 548 5 is_stmt 1 discriminator 1 view .LVU450
 548:Middlewares/Third_Party/LwIP/src/core/tcp_out.c ****                 pcb->unsent_oversize == 0);
 1444              		.loc 1 548 5 discriminator 1 view .LVU451
 1445 01f6 5F4B     		ldr	r3, .L144
 1446 01f8 4FF40972 		mov	r2, #548
 1447 01fc 6449     		ldr	r1, .L144+28
 1448 01fe 5F48     		ldr	r0, .L144+8
 1449              	.LVL147:
ARM GAS  /tmp/ccG0FHgO.s 			page 58


 548:Middlewares/Third_Party/LwIP/src/core/tcp_out.c ****                 pcb->unsent_oversize == 0);
 1450              		.loc 1 548 5 is_stmt 0 discriminator 1 view .LVU452
 1451 0200 FFF7FEFF 		bl	printf
 1452              	.LVL148:
 371:Middlewares/Third_Party/LwIP/src/core/tcp_out.c ****   u16_t pos = 0; /* position in 'arg' data */
 1453              		.loc 1 371 40 discriminator 1 view .LVU453
 1454 0204 4F46     		mov	r7, r9
 371:Middlewares/Third_Party/LwIP/src/core/tcp_out.c ****   u16_t pos = 0; /* position in 'arg' data */
 1455              		.loc 1 371 19 discriminator 1 view .LVU454
 1456 0206 CDF82490 		str	r9, [sp, #36]
 383:Middlewares/Third_Party/LwIP/src/core/tcp_out.c **** #if TCP_CHECKSUM_ON_COPY
 1457              		.loc 1 383 9 discriminator 1 view .LVU455
 1458 020a 0024     		movs	r4, #0
 1459 020c 0C94     		str	r4, [sp, #48]
 378:Middlewares/Third_Party/LwIP/src/core/tcp_out.c **** #if TCP_OVERSIZE_DBGCHECK
 1460              		.loc 1 378 9 discriminator 1 view .LVU456
 1461 020e 0B94     		str	r4, [sp, #44]
 1462 0210 C9E0     		b	.L77
 1463              	.LVL149:
 1464              	.L138:
 1465              	.LBB14:
 572:Middlewares/Third_Party/LwIP/src/core/tcp_out.c ****         LWIP_DEBUGF(TCP_OUTPUT_DEBUG | LWIP_DBG_LEVEL_SERIOUS, ("tcp_write : could not allocate mem
 1466              		.loc 1 572 7 is_stmt 1 view .LVU457
 572:Middlewares/Third_Party/LwIP/src/core/tcp_out.c ****         LWIP_DEBUGF(TCP_OUTPUT_DEBUG | LWIP_DBG_LEVEL_SERIOUS, ("tcp_write : could not allocate mem
 1467              		.loc 1 572 16 is_stmt 0 view .LVU458
 1468 0212 069B     		ldr	r3, [sp, #24]
 1469 0214 B3FA83F3 		clz	r3, r3
 1470 0218 5B09     		lsrs	r3, r3, #5
 1471 021a 0293     		str	r3, [sp, #8]
 1472 021c 079B     		ldr	r3, [sp, #28]
 1473 021e 0193     		str	r3, [sp, #4]
 1474 0220 CDF80080 		str	r8, [sp]
 1475 0224 0DF13E03 		add	r3, sp, #62
 1476 0228 5A46     		mov	r2, fp
 1477 022a 2946     		mov	r1, r5
 1478 022c 0020     		movs	r0, #0
 1479 022e FFF7FEFF 		bl	tcp_pbuf_prealloc
 1480              	.LVL150:
 572:Middlewares/Third_Party/LwIP/src/core/tcp_out.c ****         LWIP_DEBUGF(TCP_OUTPUT_DEBUG | LWIP_DBG_LEVEL_SERIOUS, ("tcp_write : could not allocate mem
 1481              		.loc 1 572 10 view .LVU459
 1482 0232 0746     		mov	r7, r0
 1483              	.LVL151:
 572:Middlewares/Third_Party/LwIP/src/core/tcp_out.c ****         LWIP_DEBUGF(TCP_OUTPUT_DEBUG | LWIP_DBG_LEVEL_SERIOUS, ("tcp_write : could not allocate mem
 1484              		.loc 1 572 10 view .LVU460
 1485 0234 0028     		cmp	r0, #0
 1486 0236 00F06481 		beq	.L121
 576:Middlewares/Third_Party/LwIP/src/core/tcp_out.c ****                   (p->len >= seglen));
 1487              		.loc 1 576 7 is_stmt 1 view .LVU461
 576:Middlewares/Third_Party/LwIP/src/core/tcp_out.c ****                   (p->len >= seglen));
 1488              		.loc 1 576 7 view .LVU462
 1489 023a 4389     		ldrh	r3, [r0, #10]
 1490 023c AB42     		cmp	r3, r5
 1491 023e 06D3     		bcc	.L133
 1492              	.LVL152:
 1493              	.L84:
 576:Middlewares/Third_Party/LwIP/src/core/tcp_out.c ****                   (p->len >= seglen));
 1494              		.loc 1 576 7 discriminator 3 view .LVU463
ARM GAS  /tmp/ccG0FHgO.s 			page 59


 576:Middlewares/Third_Party/LwIP/src/core/tcp_out.c ****                   (p->len >= seglen));
 1495              		.loc 1 576 7 discriminator 3 view .LVU464
 578:Middlewares/Third_Party/LwIP/src/core/tcp_out.c ****     } else {
 1496              		.loc 1 578 7 discriminator 3 view .LVU465
 1497 0240 2A46     		mov	r2, r5
 1498 0242 089B     		ldr	r3, [sp, #32]
 1499 0244 1919     		adds	r1, r3, r4
 1500 0246 7868     		ldr	r0, [r7, #4]
 1501 0248 FFF7FEFF 		bl	memcpy
 1502              	.LVL153:
 1503 024c 1EE0     		b	.L85
 1504              	.LVL154:
 1505              	.L133:
 576:Middlewares/Third_Party/LwIP/src/core/tcp_out.c ****                   (p->len >= seglen));
 1506              		.loc 1 576 7 discriminator 1 view .LVU466
 576:Middlewares/Third_Party/LwIP/src/core/tcp_out.c ****                   (p->len >= seglen));
 1507              		.loc 1 576 7 discriminator 1 view .LVU467
 1508 024e 494B     		ldr	r3, .L144
 1509 0250 4FF41072 		mov	r2, #576
 1510 0254 4F49     		ldr	r1, .L144+32
 1511 0256 4948     		ldr	r0, .L144+8
 1512              	.LVL155:
 576:Middlewares/Third_Party/LwIP/src/core/tcp_out.c ****                   (p->len >= seglen));
 1513              		.loc 1 576 7 is_stmt 0 discriminator 1 view .LVU468
 1514 0258 FFF7FEFF 		bl	printf
 1515              	.LVL156:
 1516 025c F0E7     		b	.L84
 1517              	.LVL157:
 1518              	.L86:
 1519              	.LBB15:
 587:Middlewares/Third_Party/LwIP/src/core/tcp_out.c **** #endif /* TCP_OVERSIZE */
 1520              		.loc 1 587 7 is_stmt 1 discriminator 3 view .LVU469
 587:Middlewares/Third_Party/LwIP/src/core/tcp_out.c **** #endif /* TCP_OVERSIZE */
 1521              		.loc 1 587 7 discriminator 3 view .LVU470
 589:Middlewares/Third_Party/LwIP/src/core/tcp_out.c ****         LWIP_DEBUGF(TCP_OUTPUT_DEBUG | LWIP_DBG_LEVEL_SERIOUS, ("tcp_write: could not allocate memo
 1522              		.loc 1 589 7 discriminator 3 view .LVU471
 589:Middlewares/Third_Party/LwIP/src/core/tcp_out.c ****         LWIP_DEBUGF(TCP_OUTPUT_DEBUG | LWIP_DBG_LEVEL_SERIOUS, ("tcp_write: could not allocate memo
 1523              		.loc 1 589 17 is_stmt 0 discriminator 3 view .LVU472
 1524 025e 0122     		movs	r2, #1
 1525 0260 2946     		mov	r1, r5
 1526 0262 0020     		movs	r0, #0
 1527 0264 FFF7FEFF 		bl	pbuf_alloc
 1528              	.LVL158:
 589:Middlewares/Third_Party/LwIP/src/core/tcp_out.c ****         LWIP_DEBUGF(TCP_OUTPUT_DEBUG | LWIP_DBG_LEVEL_SERIOUS, ("tcp_write: could not allocate memo
 1529              		.loc 1 589 10 discriminator 3 view .LVU473
 1530 0268 8146     		mov	r9, r0
 1531 026a 0028     		cmp	r0, #0
 1532 026c 00F04C81 		beq	.L122
 602:Middlewares/Third_Party/LwIP/src/core/tcp_out.c **** 
 1533              		.loc 1 602 7 is_stmt 1 view .LVU474
 602:Middlewares/Third_Party/LwIP/src/core/tcp_out.c **** 
 1534              		.loc 1 602 58 is_stmt 0 view .LVU475
 1535 0270 089B     		ldr	r3, [sp, #32]
 1536 0272 2344     		add	r3, r3, r4
 602:Middlewares/Third_Party/LwIP/src/core/tcp_out.c **** 
 1537              		.loc 1 602 39 view .LVU476
 1538 0274 4360     		str	r3, [r0, #4]
ARM GAS  /tmp/ccG0FHgO.s 			page 60


 605:Middlewares/Third_Party/LwIP/src/core/tcp_out.c ****         /* If allocation fails, we have to deallocate the data pbuf as
 1539              		.loc 1 605 7 is_stmt 1 view .LVU477
 605:Middlewares/Third_Party/LwIP/src/core/tcp_out.c ****         /* If allocation fails, we have to deallocate the data pbuf as
 1540              		.loc 1 605 16 is_stmt 0 view .LVU478
 1541 0276 0022     		movs	r2, #0
 1542 0278 1146     		mov	r1, r2
 1543 027a 1046     		mov	r0, r2
 1544              	.LVL159:
 605:Middlewares/Third_Party/LwIP/src/core/tcp_out.c ****         /* If allocation fails, we have to deallocate the data pbuf as
 1545              		.loc 1 605 16 view .LVU479
 1546 027c FFF7FEFF 		bl	pbuf_alloc
 1547              	.LVL160:
 605:Middlewares/Third_Party/LwIP/src/core/tcp_out.c ****         /* If allocation fails, we have to deallocate the data pbuf as
 1548              		.loc 1 605 10 view .LVU480
 1549 0280 0746     		mov	r7, r0
 1550              	.LVL161:
 605:Middlewares/Third_Party/LwIP/src/core/tcp_out.c ****         /* If allocation fails, we have to deallocate the data pbuf as
 1551              		.loc 1 605 10 view .LVU481
 1552 0282 0028     		cmp	r0, #0
 1553 0284 39D0     		beq	.L134
 613:Middlewares/Third_Party/LwIP/src/core/tcp_out.c ****     }
 1554              		.loc 1 613 7 is_stmt 1 view .LVU482
 1555 0286 4946     		mov	r1, r9
 1556 0288 FFF7FEFF 		bl	pbuf_cat
 1557              	.LVL162:
 1558              	.L85:
 613:Middlewares/Third_Party/LwIP/src/core/tcp_out.c ****     }
 1559              		.loc 1 613 7 is_stmt 0 view .LVU483
 1560              	.LBE15:
 616:Middlewares/Third_Party/LwIP/src/core/tcp_out.c **** 
 1561              		.loc 1 616 5 is_stmt 1 view .LVU484
 616:Middlewares/Third_Party/LwIP/src/core/tcp_out.c **** 
 1562              		.loc 1 616 17 is_stmt 0 view .LVU485
 1563 028c 3846     		mov	r0, r7
 1564 028e FFF7FEFF 		bl	pbuf_clen
 1565              	.LVL163:
 616:Middlewares/Third_Party/LwIP/src/core/tcp_out.c **** 
 1566              		.loc 1 616 14 view .LVU486
 1567 0292 0644     		add	r6, r6, r0
 1568              	.LVL164:
 616:Middlewares/Third_Party/LwIP/src/core/tcp_out.c **** 
 1569              		.loc 1 616 14 view .LVU487
 1570 0294 B6B2     		uxth	r6, r6
 1571              	.LVL165:
 621:Middlewares/Third_Party/LwIP/src/core/tcp_out.c ****       LWIP_DEBUGF(TCP_OUTPUT_DEBUG | LWIP_DBG_LEVEL_SERIOUS, ("tcp_write: queue too long %"U16_F" (
 1572              		.loc 1 621 5 is_stmt 1 view .LVU488
 621:Middlewares/Third_Party/LwIP/src/core/tcp_out.c ****       LWIP_DEBUGF(TCP_OUTPUT_DEBUG | LWIP_DBG_LEVEL_SERIOUS, ("tcp_write: queue too long %"U16_F" (
 1573              		.loc 1 621 8 is_stmt 0 view .LVU489
 1574 0296 092E     		cmp	r6, #9
 1575 0298 35D8     		bhi	.L135
 628:Middlewares/Third_Party/LwIP/src/core/tcp_out.c ****       goto memerr;
 1576              		.loc 1 628 5 is_stmt 1 view .LVU490
 628:Middlewares/Third_Party/LwIP/src/core/tcp_out.c ****       goto memerr;
 1577              		.loc 1 628 49 is_stmt 0 view .LVU491
 1578 029a D8F85830 		ldr	r3, [r8, #88]
 628:Middlewares/Third_Party/LwIP/src/core/tcp_out.c ****       goto memerr;
 1579              		.loc 1 628 16 view .LVU492
ARM GAS  /tmp/ccG0FHgO.s 			page 61


 1580 029e 0022     		movs	r2, #0
 1581 02a0 0092     		str	r2, [sp]
 1582 02a2 2344     		add	r3, r3, r4
 1583 02a4 3946     		mov	r1, r7
 1584 02a6 4046     		mov	r0, r8
 1585 02a8 FFF7FEFF 		bl	tcp_create_segment
 1586              	.LVL166:
 628:Middlewares/Third_Party/LwIP/src/core/tcp_out.c ****       goto memerr;
 1587              		.loc 1 628 8 view .LVU493
 1588 02ac 0746     		mov	r7, r0
 1589              	.LVL167:
 628:Middlewares/Third_Party/LwIP/src/core/tcp_out.c ****       goto memerr;
 1590              		.loc 1 628 8 view .LVU494
 1591 02ae 0028     		cmp	r0, #0
 1592 02b0 00F02D81 		beq	.L123
 641:Middlewares/Third_Party/LwIP/src/core/tcp_out.c ****       queue = seg;
 1593              		.loc 1 641 5 is_stmt 1 view .LVU495
 641:Middlewares/Third_Party/LwIP/src/core/tcp_out.c ****       queue = seg;
 1594              		.loc 1 641 8 is_stmt 0 view .LVU496
 1595 02b4 069B     		ldr	r3, [sp, #24]
 1596 02b6 002B     		cmp	r3, #0
 1597 02b8 59D0     		beq	.L117
 645:Middlewares/Third_Party/LwIP/src/core/tcp_out.c ****       prev_seg->next = seg;
 1598              		.loc 1 645 7 is_stmt 1 view .LVU497
 645:Middlewares/Third_Party/LwIP/src/core/tcp_out.c ****       prev_seg->next = seg;
 1599              		.loc 1 645 7 view .LVU498
 1600 02ba 059B     		ldr	r3, [sp, #20]
 1601 02bc 002B     		cmp	r3, #0
 1602 02be 4ED0     		beq	.L136
 1603              	.LVL168:
 1604              	.L90:
 645:Middlewares/Third_Party/LwIP/src/core/tcp_out.c ****       prev_seg->next = seg;
 1605              		.loc 1 645 7 discriminator 3 view .LVU499
 645:Middlewares/Third_Party/LwIP/src/core/tcp_out.c ****       prev_seg->next = seg;
 1606              		.loc 1 645 7 discriminator 3 view .LVU500
 646:Middlewares/Third_Party/LwIP/src/core/tcp_out.c ****     }
 1607              		.loc 1 646 7 discriminator 3 view .LVU501
 646:Middlewares/Third_Party/LwIP/src/core/tcp_out.c ****     }
 1608              		.loc 1 646 22 is_stmt 0 discriminator 3 view .LVU502
 1609 02c0 059B     		ldr	r3, [sp, #20]
 1610 02c2 1F60     		str	r7, [r3]
 1611              	.LVL169:
 1612              	.L89:
 649:Middlewares/Third_Party/LwIP/src/core/tcp_out.c **** 
 1613              		.loc 1 649 5 is_stmt 1 view .LVU503
 653:Middlewares/Third_Party/LwIP/src/core/tcp_out.c **** 
 1614              		.loc 1 653 57 view .LVU504
 655:Middlewares/Third_Party/LwIP/src/core/tcp_out.c ****   }
 1615              		.loc 1 655 5 view .LVU505
 655:Middlewares/Third_Party/LwIP/src/core/tcp_out.c ****   }
 1616              		.loc 1 655 9 is_stmt 0 view .LVU506
 1617 02c4 2C44     		add	r4, r4, r5
 1618              	.LVL170:
 655:Middlewares/Third_Party/LwIP/src/core/tcp_out.c ****   }
 1619              		.loc 1 655 9 view .LVU507
 1620 02c6 A4B2     		uxth	r4, r4
 1621              	.LVL171:
ARM GAS  /tmp/ccG0FHgO.s 			page 62


 649:Middlewares/Third_Party/LwIP/src/core/tcp_out.c **** 
 1622              		.loc 1 649 14 view .LVU508
 1623 02c8 0597     		str	r7, [sp, #20]
 1624              	.LVL172:
 1625              	.L91:
 649:Middlewares/Third_Party/LwIP/src/core/tcp_out.c **** 
 1626              		.loc 1 649 14 view .LVU509
 1627              	.LBE14:
 559:Middlewares/Third_Party/LwIP/src/core/tcp_out.c ****     struct pbuf *p;
 1628              		.loc 1 559 9 is_stmt 1 view .LVU510
 1629 02ca 5445     		cmp	r4, r10
 1630 02cc 76D2     		bcs	.L137
 1631              	.LBB17:
 560:Middlewares/Third_Party/LwIP/src/core/tcp_out.c ****     u16_t left = len - pos;
 1632              		.loc 1 560 5 view .LVU511
 561:Middlewares/Third_Party/LwIP/src/core/tcp_out.c ****     u16_t max_len = mss_local - optlen;
 1633              		.loc 1 561 5 view .LVU512
 561:Middlewares/Third_Party/LwIP/src/core/tcp_out.c ****     u16_t max_len = mss_local - optlen;
 1634              		.loc 1 561 11 is_stmt 0 view .LVU513
 1635 02ce AAEB0405 		sub	r5, r10, r4
 1636 02d2 ADB2     		uxth	r5, r5
 1637              	.LVL173:
 562:Middlewares/Third_Party/LwIP/src/core/tcp_out.c ****     u16_t seglen = LWIP_MIN(left, max_len);
 1638              		.loc 1 562 5 is_stmt 1 view .LVU514
 563:Middlewares/Third_Party/LwIP/src/core/tcp_out.c **** #if TCP_CHECKSUM_ON_COPY
 1639              		.loc 1 563 5 view .LVU515
 563:Middlewares/Third_Party/LwIP/src/core/tcp_out.c **** #if TCP_CHECKSUM_ON_COPY
 1640              		.loc 1 563 11 is_stmt 0 view .LVU516
 1641 02d4 5D45     		cmp	r5, fp
 1642 02d6 28BF     		it	cs
 1643 02d8 5D46     		movcs	r5, fp
 1644              	.LVL174:
 569:Middlewares/Third_Party/LwIP/src/core/tcp_out.c ****       /* If copy is set, memory should be allocated and data copied
 1645              		.loc 1 569 5 is_stmt 1 view .LVU517
 569:Middlewares/Third_Party/LwIP/src/core/tcp_out.c ****       /* If copy is set, memory should be allocated and data copied
 1646              		.loc 1 569 8 is_stmt 0 view .LVU518
 1647 02da 079B     		ldr	r3, [sp, #28]
 1648 02dc 13F0010F 		tst	r3, #1
 1649 02e0 97D1     		bne	.L138
 1650              	.LBB16:
 585:Middlewares/Third_Party/LwIP/src/core/tcp_out.c **** #if TCP_OVERSIZE
 1651              		.loc 1 585 7 is_stmt 1 view .LVU519
 587:Middlewares/Third_Party/LwIP/src/core/tcp_out.c **** #endif /* TCP_OVERSIZE */
 1652              		.loc 1 587 7 view .LVU520
 587:Middlewares/Third_Party/LwIP/src/core/tcp_out.c **** #endif /* TCP_OVERSIZE */
 1653              		.loc 1 587 7 view .LVU521
 1654 02e2 BDF83E30 		ldrh	r3, [sp, #62]
 1655 02e6 002B     		cmp	r3, #0
 1656 02e8 B9D0     		beq	.L86
 587:Middlewares/Third_Party/LwIP/src/core/tcp_out.c **** #endif /* TCP_OVERSIZE */
 1657              		.loc 1 587 7 discriminator 1 view .LVU522
 587:Middlewares/Third_Party/LwIP/src/core/tcp_out.c **** #endif /* TCP_OVERSIZE */
 1658              		.loc 1 587 7 discriminator 1 view .LVU523
 1659 02ea 224B     		ldr	r3, .L144
 1660 02ec 40F24B22 		movw	r2, #587
 1661 02f0 2949     		ldr	r1, .L144+36
 1662 02f2 2248     		ldr	r0, .L144+8
ARM GAS  /tmp/ccG0FHgO.s 			page 63


 1663 02f4 FFF7FEFF 		bl	printf
 1664              	.LVL175:
 1665 02f8 B1E7     		b	.L86
 1666              	.LVL176:
 1667              	.L134:
 608:Middlewares/Third_Party/LwIP/src/core/tcp_out.c ****         LWIP_DEBUGF(TCP_OUTPUT_DEBUG | LWIP_DBG_LEVEL_SERIOUS, ("tcp_write: could not allocate memo
 1668              		.loc 1 608 9 is_stmt 0 view .LVU524
 1669 02fa 4846     		mov	r0, r9
 1670              	.LVL177:
 608:Middlewares/Third_Party/LwIP/src/core/tcp_out.c ****         LWIP_DEBUGF(TCP_OUTPUT_DEBUG | LWIP_DBG_LEVEL_SERIOUS, ("tcp_write: could not allocate memo
 1671              		.loc 1 608 9 view .LVU525
 1672 02fc DDF83490 		ldr	r9, [sp, #52]
 1673              	.LVL178:
 608:Middlewares/Third_Party/LwIP/src/core/tcp_out.c ****         LWIP_DEBUGF(TCP_OUTPUT_DEBUG | LWIP_DBG_LEVEL_SERIOUS, ("tcp_write: could not allocate memo
 1674              		.loc 1 608 9 is_stmt 1 view .LVU526
 1675 0300 FFF7FEFF 		bl	pbuf_free
 1676              	.LVL179:
 609:Middlewares/Third_Party/LwIP/src/core/tcp_out.c ****         goto memerr;
 1677              		.loc 1 609 123 view .LVU527
 610:Middlewares/Third_Party/LwIP/src/core/tcp_out.c ****       }
 1678              		.loc 1 610 9 view .LVU528
 1679 0304 04E0     		b	.L79
 1680              	.L135:
 610:Middlewares/Third_Party/LwIP/src/core/tcp_out.c ****       }
 1681              		.loc 1 610 9 is_stmt 0 view .LVU529
 1682              	.LBE16:
 624:Middlewares/Third_Party/LwIP/src/core/tcp_out.c ****       goto memerr;
 1683              		.loc 1 624 7 view .LVU530
 1684 0306 DDF83490 		ldr	r9, [sp, #52]
 623:Middlewares/Third_Party/LwIP/src/core/tcp_out.c ****       pbuf_free(p);
 1685              		.loc 1 623 42 is_stmt 1 view .LVU531
 624:Middlewares/Third_Party/LwIP/src/core/tcp_out.c ****       goto memerr;
 1686              		.loc 1 624 7 view .LVU532
 1687 030a 3846     		mov	r0, r7
 1688 030c FFF7FEFF 		bl	pbuf_free
 1689              	.LVL180:
 625:Middlewares/Third_Party/LwIP/src/core/tcp_out.c ****     }
 1690              		.loc 1 625 7 view .LVU533
 1691              	.L79:
 625:Middlewares/Third_Party/LwIP/src/core/tcp_out.c ****     }
 1692              		.loc 1 625 7 is_stmt 0 view .LVU534
 1693              	.LBE17:
 759:Middlewares/Third_Party/LwIP/src/core/tcp_out.c ****   TCP_STATS_INC(tcp.memerr);
 1694              		.loc 1 759 3 is_stmt 1 view .LVU535
 759:Middlewares/Third_Party/LwIP/src/core/tcp_out.c ****   TCP_STATS_INC(tcp.memerr);
 1695              		.loc 1 759 14 is_stmt 0 view .LVU536
 1696 0310 98F81A30 		ldrb	r3, [r8, #26]	@ zero_extendqisi2
 1697 0314 63F07F03 		orn	r3, r3, #127
 1698 0318 88F81A30 		strb	r3, [r8, #26]
 760:Middlewares/Third_Party/LwIP/src/core/tcp_out.c **** 
 1699              		.loc 1 760 28 is_stmt 1 view .LVU537
 762:Middlewares/Third_Party/LwIP/src/core/tcp_out.c ****     pbuf_free(concat_p);
 1700              		.loc 1 762 3 view .LVU538
 762:Middlewares/Third_Party/LwIP/src/core/tcp_out.c ****     pbuf_free(concat_p);
 1701              		.loc 1 762 6 is_stmt 0 view .LVU539
 1702 031c B9F1000F 		cmp	r9, #0
 1703 0320 02D0     		beq	.L107
ARM GAS  /tmp/ccG0FHgO.s 			page 64


 763:Middlewares/Third_Party/LwIP/src/core/tcp_out.c ****   }
 1704              		.loc 1 763 5 is_stmt 1 view .LVU540
 1705 0322 4846     		mov	r0, r9
 1706 0324 FFF7FEFF 		bl	pbuf_free
 1707              	.LVL181:
 1708              	.L107:
 765:Middlewares/Third_Party/LwIP/src/core/tcp_out.c ****     tcp_segs_free(queue);
 1709              		.loc 1 765 3 view .LVU541
 765:Middlewares/Third_Party/LwIP/src/core/tcp_out.c ****     tcp_segs_free(queue);
 1710              		.loc 1 765 6 is_stmt 0 view .LVU542
 1711 0328 069B     		ldr	r3, [sp, #24]
 1712 032a 13B1     		cbz	r3, .L108
 766:Middlewares/Third_Party/LwIP/src/core/tcp_out.c ****   }
 1713              		.loc 1 766 5 is_stmt 1 view .LVU543
 1714 032c 1846     		mov	r0, r3
 1715 032e FFF7FEFF 		bl	tcp_segs_free
 1716              	.LVL182:
 1717              	.L108:
 768:Middlewares/Third_Party/LwIP/src/core/tcp_out.c ****     LWIP_ASSERT("tcp_write: valid queue length", pcb->unacked != NULL ||
 1718              		.loc 1 768 3 view .LVU544
 768:Middlewares/Third_Party/LwIP/src/core/tcp_out.c ****     LWIP_ASSERT("tcp_write: valid queue length", pcb->unacked != NULL ||
 1719              		.loc 1 768 10 is_stmt 0 view .LVU545
 1720 0332 B8F86230 		ldrh	r3, [r8, #98]
 768:Middlewares/Third_Party/LwIP/src/core/tcp_out.c ****     LWIP_ASSERT("tcp_write: valid queue length", pcb->unacked != NULL ||
 1721              		.loc 1 768 6 view .LVU546
 1722 0336 002B     		cmp	r3, #0
 1723 0338 00F0F780 		beq	.L118
 769:Middlewares/Third_Party/LwIP/src/core/tcp_out.c ****       pcb->unsent != NULL);
 1724              		.loc 1 769 5 is_stmt 1 view .LVU547
 769:Middlewares/Third_Party/LwIP/src/core/tcp_out.c ****       pcb->unsent != NULL);
 1725              		.loc 1 769 5 view .LVU548
 1726 033c D8F86C30 		ldr	r3, [r8, #108]
 1727 0340 002B     		cmp	r3, #0
 1728 0342 40F0F680 		bne	.L119
 769:Middlewares/Third_Party/LwIP/src/core/tcp_out.c ****       pcb->unsent != NULL);
 1729              		.loc 1 769 5 is_stmt 0 discriminator 1 view .LVU549
 1730 0346 D8F86830 		ldr	r3, [r8, #104]
 1731 034a 002B     		cmp	r3, #0
 1732 034c 00F0E280 		beq	.L139
 773:Middlewares/Third_Party/LwIP/src/core/tcp_out.c **** }
 1733              		.loc 1 773 10 view .LVU550
 1734 0350 4FF0FF33 		mov	r3, #-1
 1735 0354 0A93     		str	r3, [sp, #40]
 1736              	.LVL183:
 1737              	.L70:
 774:Middlewares/Third_Party/LwIP/src/core/tcp_out.c **** 
 1738              		.loc 1 774 1 view .LVU551
 1739 0356 0A98     		ldr	r0, [sp, #40]
 1740 0358 11B0     		add	sp, sp, #68
 1741              	.LCFI10:
 1742              		.cfi_remember_state
 1743              		.cfi_def_cfa_offset 36
 1744              		@ sp needed
 1745 035a BDE8F08F 		pop	{r4, r5, r6, r7, r8, r9, r10, fp, pc}
 1746              	.LVL184:
 1747              	.L136:
 1748              	.LCFI11:
ARM GAS  /tmp/ccG0FHgO.s 			page 65


 1749              		.cfi_restore_state
 1750              	.LBB18:
 645:Middlewares/Third_Party/LwIP/src/core/tcp_out.c ****       prev_seg->next = seg;
 1751              		.loc 1 645 7 is_stmt 1 discriminator 1 view .LVU552
 645:Middlewares/Third_Party/LwIP/src/core/tcp_out.c ****       prev_seg->next = seg;
 1752              		.loc 1 645 7 discriminator 1 view .LVU553
 1753 035e 054B     		ldr	r3, .L144
 1754 0360 40F28522 		movw	r2, #645
 1755 0364 0D49     		ldr	r1, .L144+40
 1756 0366 0548     		ldr	r0, .L144+8
 1757              	.LVL185:
 645:Middlewares/Third_Party/LwIP/src/core/tcp_out.c ****       prev_seg->next = seg;
 1758              		.loc 1 645 7 is_stmt 0 discriminator 1 view .LVU554
 1759 0368 FFF7FEFF 		bl	printf
 1760              	.LVL186:
 1761 036c A8E7     		b	.L90
 1762              	.LVL187:
 1763              	.L117:
 642:Middlewares/Third_Party/LwIP/src/core/tcp_out.c ****     } else {
 1764              		.loc 1 642 13 view .LVU555
 1765 036e 0690     		str	r0, [sp, #24]
 1766              	.LVL188:
 642:Middlewares/Third_Party/LwIP/src/core/tcp_out.c ****     } else {
 1767              		.loc 1 642 13 view .LVU556
 1768 0370 A8E7     		b	.L89
 1769              	.L145:
 1770 0372 00BF     		.align	2
 1771              	.L144:
 1772 0374 00000000 		.word	.LC0
 1773 0378 00000000 		.word	.LC7
 1774 037c 6C000000 		.word	.LC2
 1775 0380 34000000 		.word	.LC8
 1776 0384 4C000000 		.word	.LC9
 1777 0388 6C000000 		.word	.LC10
 1778 038c 8C000000 		.word	.LC11
 1779 0390 B8000000 		.word	.LC12
 1780 0394 E8000000 		.word	.LC13
 1781 0398 28010000 		.word	.LC14
 1782 039c 38010000 		.word	.LC15
 1783              	.LVL189:
 1784              	.L110:
 642:Middlewares/Third_Party/LwIP/src/core/tcp_out.c ****     } else {
 1785              		.loc 1 642 13 view .LVU557
 1786              	.LBE18:
 1787              	.LBB19:
 1788 03a0 0B9C     		ldr	r4, [sp, #44]
 1789              	.LBE19:
 383:Middlewares/Third_Party/LwIP/src/core/tcp_out.c **** #if TCP_CHECKSUM_ON_COPY
 1790              		.loc 1 383 9 view .LVU558
 1791 03a2 0023     		movs	r3, #0
 1792 03a4 0C93     		str	r3, [sp, #48]
 1793              	.LVL190:
 1794              	.L77:
 371:Middlewares/Third_Party/LwIP/src/core/tcp_out.c ****   u16_t pos = 0; /* position in 'arg' data */
 1795              		.loc 1 371 19 view .LVU559
 1796 03a6 0023     		movs	r3, #0
 1797 03a8 0693     		str	r3, [sp, #24]
ARM GAS  /tmp/ccG0FHgO.s 			page 66


 1798 03aa 0593     		str	r3, [sp, #20]
 1799 03ac CDF83490 		str	r9, [sp, #52]
 1800 03b0 8BE7     		b	.L91
 1801              	.LVL191:
 1802              	.L111:
 1803              	.LBB20:
 371:Middlewares/Third_Party/LwIP/src/core/tcp_out.c ****   u16_t pos = 0; /* position in 'arg' data */
 1804              		.loc 1 371 19 view .LVU560
 1805 03b2 0B9C     		ldr	r4, [sp, #44]
 1806 03b4 F7E7     		b	.L77
 1807              	.L112:
 1808              	.LBE20:
 383:Middlewares/Third_Party/LwIP/src/core/tcp_out.c **** #if TCP_CHECKSUM_ON_COPY
 1809              		.loc 1 383 9 view .LVU561
 1810 03b6 0C93     		str	r3, [sp, #48]
 1811              	.LVL192:
 1812              	.LBB21:
 383:Middlewares/Third_Party/LwIP/src/core/tcp_out.c **** #if TCP_CHECKSUM_ON_COPY
 1813              		.loc 1 383 9 view .LVU562
 1814 03b8 0B9C     		ldr	r4, [sp, #44]
 1815 03ba F4E7     		b	.L77
 1816              	.LVL193:
 1817              	.L137:
 383:Middlewares/Third_Party/LwIP/src/core/tcp_out.c **** #if TCP_CHECKSUM_ON_COPY
 1818              		.loc 1 383 9 view .LVU563
 1819              	.LBE21:
 673:Middlewares/Third_Party/LwIP/src/core/tcp_out.c ****     struct pbuf *p;
 1820              		.loc 1 673 6 view .LVU564
 1821 03bc DDF83490 		ldr	r9, [sp, #52]
 673:Middlewares/Third_Party/LwIP/src/core/tcp_out.c ****     struct pbuf *p;
 1822              		.loc 1 673 3 is_stmt 1 view .LVU565
 673:Middlewares/Third_Party/LwIP/src/core/tcp_out.c ****     struct pbuf *p;
